

Microchip Technology PIC18 LITE Macro Assembler V1.45 build -152302408 
                                                                                               Tue Oct 29 11:03:59 2019

Microchip Technology Omniscient Code Generator v1.45 (Free mode) build 201711160504
     1                           	processor	18F2550
     2                           	fnconf	rparam,??,?,0
     3                           	opt	pw 120
     4                           	opt	lm
     5                           	psect	smallconst,global,reloc=2,class=SMALLCONST,delta=1,noexec
     6                           	psect	cinit,global,reloc=2,class=CODE,delta=1
     7                           	psect	bssCOMRAM,global,class=COMRAM,space=1,delta=1,noexec
     8                           	psect	bssBANK0,global,class=BANK0,space=1,delta=1,lowdata,noexec
     9                           	psect	cstackBANK0,global,class=BANK0,space=1,delta=1,noexec
    10                           	psect	cstackCOMRAM,global,class=COMRAM,space=1,delta=1,noexec
    11                           	psect	text0,global,reloc=2,class=CODE,delta=1
    12                           	psect	text1,global,reloc=2,class=CODE,delta=1
    13                           	psect	text2,global,reloc=2,class=CODE,delta=1
    14                           	psect	text3,global,reloc=2,class=CODE,delta=1
    15                           	psect	text4,global,reloc=2,class=CODE,delta=1
    16                           	psect	text5,global,reloc=2,class=CODE,delta=1,group=1
    17                           	psect	text6,global,reloc=2,class=CODE,delta=1
    18                           	psect	text7,global,reloc=2,class=CODE,delta=1
    19                           	psect	text8,global,reloc=2,class=CODE,delta=1
    20                           	psect	text9,global,reloc=2,class=CODE,delta=1
    21                           	psect	text10,global,reloc=2,class=CODE,delta=1
    22                           	psect	text11,global,reloc=2,class=CODE,delta=1
    23                           	psect	text12,global,reloc=2,class=CODE,delta=1
    24                           	psect	text13,global,reloc=2,class=CODE,delta=1
    25                           	psect	text14,global,reloc=2,class=CODE,delta=1
    26                           	psect	text15,global,reloc=2,class=CODE,delta=1
    27                           	psect	text16,global,reloc=2,class=CODE,delta=1
    28                           	psect	text17,global,reloc=2,class=CODE,delta=1
    29                           	psect	text18,global,reloc=2,class=CODE,delta=1
    30                           	psect	text19,global,reloc=2,class=CODE,delta=1
    31                           	psect	intcode,global,reloc=2,class=CODE,delta=1
    32                           	psect	intcode_body,global,reloc=2,class=CODE,delta=1
    33                           	psect	text21,global,reloc=2,class=CODE,delta=1
    34                           	psect	text22,global,reloc=2,class=CODE,delta=1
    35                           	psect	text23,global,reloc=2,class=CODE,delta=1
    36                           	psect	text24,global,reloc=2,class=CODE,delta=1
    37                           	psect	text25,global,reloc=2,class=CODE,delta=1
    38                           	psect	text26,global,reloc=2,class=CODE,delta=1
    39                           	psect	text27,global,reloc=2,class=CODE,delta=1
    40                           	psect	text28,global,reloc=2,class=CODE,delta=1,group=1
    41                           	psect	text29,global,reloc=2,class=CODE,delta=1
    42                           	psect	text30,global,reloc=2,class=CODE,delta=1
    43                           	psect	text31,global,reloc=2,class=CODE,delta=1
    44                           	psect	text32,global,reloc=2,class=CODE,delta=1
    45                           	psect	text33,global,reloc=2,class=CODE,delta=1
    46                           	psect	text34,global,reloc=2,class=CODE,delta=1
    47                           	psect	text35,global,reloc=2,class=CODE,delta=1
    48                           	psect	text36,global,reloc=2,class=CODE,delta=1
    49                           	psect	text37,global,reloc=2,class=CODE,delta=1
    50                           	psect	text38,global,reloc=2,class=CODE,delta=1
    51                           	psect	text39,global,reloc=2,class=CODE,delta=1
    52                           	psect	text40,global,reloc=2,class=CODE,delta=1
    53                           	psect	text41,global,reloc=2,class=CODE,delta=1
    54                           	psect	text42,global,reloc=2,class=CODE,delta=1
    55                           	psect	text43,global,reloc=2,class=CODE,delta=1
    56                           	psect	text44,global,reloc=2,class=CODE,delta=1
    57                           	psect	text45,global,reloc=2,class=CODE,delta=1
    58                           	psect	text46,global,reloc=2,class=CODE,delta=1
    59                           	psect	text47,global,reloc=2,class=CODE,delta=1
    60                           	psect	text48,global,reloc=2,class=CODE,delta=1
    61                           	psect	text49,global,reloc=2,class=CODE,delta=1
    62                           	psect	intsave_regs,global,class=BIGRAM,space=1,delta=1,noexec
    63                           	psect	rparam,global,class=COMRAM,space=1,delta=1,noexec
    64                           	psect	temp,global,ovrld,common,class=COMRAM,space=1,delta=1
    65                           	dabs	1,0x400,64,_BDT
    66                           	dabs	1,0x500,64,_cdc_data_tx
    67                           	dabs	1,0x448,8,_CtrlTrfData
    68                           	dabs	1,0x440,8,_SetupPkt
    69                           	dabs	1,0x540,64,_cdc_data_rx
    70  0000                     
    71                           ; Version 1.45
    72                           ; Generated 16/11/2017 GMT
    73                           ; 
    74                           ; Copyright © 2017, Microchip Technology Inc. and its subsidiaries ("Microchip")
    75                           ; All rights reserved.
    76                           ; 
    77                           ; This software is developed by Microchip Technology Inc. and its subsidiaries ("Microch
      +                          ip").
    78                           ; 
    79                           ; Redistribution and use in source and binary forms, with or without modification, are
    80                           ; permitted provided that the following conditions are met:
    81                           ; 
    82                           ;     1. Redistributions of source code must retain the above copyright notice, this lis
      +                          t of
    83                           ;        conditions and the following disclaimer.
    84                           ; 
    85                           ;     2. Redistributions in binary form must reproduce the above copyright notice, this 
      +                          list
    86                           ;        of conditions and the following disclaimer in the documentation and/or other
    87                           ;        materials provided with the distribution.
    88                           ; 
    89                           ;     3. Microchip's name may not be used to endorse or promote products derived from th
      +                          is
    90                           ;        software without specific prior written permission.
    91                           ; 
    92                           ; THIS SOFTWARE IS PROVIDED BY MICROCHIP "AS IS" AND ANY EXPRESS OR IMPLIED WARRANTIES,
    93                           ; INCLUDING, BUT NOT LIMITED TO, THE IMPLIED WARRANTIES OF MERCHANTABILITY AND FITNESS F
      +                          OR
    94                           ; PURPOSE ARE DISCLAIMED.  IN NO EVENT SHALL MICROCHIP BE LIABLE FOR ANY DIRECT, INDIREC
      +                          T,
    95                           ; INCIDENTAL, SPECIAL, EXEMPLARY, OR CONSEQUENTIAL DAMAGES (INCLUDING BUT NOT LIMITED TO
    96                           ; PROCUREMENT OF SUBSTITUTE GOODS OR SERVICES; LOSS OF USE, DATA OR PROFITS; OR BUSINESS
    97                           ; INTERRUPTION) HOWSOEVER CAUSED AND ON ANY THEORY OF LIABILITY, WHETHER IN CONTRACT, ST
      +                          RICT
    98                           ; LIABILITY, OR TORT (INCLUDING NEGLIGENCE OR OTHERWISE) ARISING IN ANY WAY OUT OF THE U
      +                          SE OF
    99                           ; THIS SOFTWARE, EVEN IF ADVISED OF THE POSSIBILITY OF SUCH DAMAGE.
   100                           ; 
   101                           ; 
   102                           ; Code-generator required, PIC18F2550 Definitions
   103                           ; 
   104                           ; SFR Addresses
   105  0000                     
   106                           	psect	smallconst
   107  000800                     __psmallconst:
   108                           	opt stack 0
   109  000800  00                 	db	0
   110  000801                     displayWrite@F3387:
   111                           	opt stack 0
   112  000801  3F                 	db	63
   113  000802  06                 	db	6
   114  000803  5B                 	db	91
   115  000804  4F                 	db	79
   116  000805  66                 	db	102
   117  000806  6D                 	db	109
   118  000807  7D                 	db	125
   119  000808  07                 	db	7
   120  000809  7F                 	db	127
   121  00080A  67                 	db	103
   122  00080B                     __end_ofdisplayWrite@F3387:
   123                           	opt stack 0
   124  00080B                     _USB_SD_Ptr:
   125                           	opt stack 0
   126  00080B  D0                 	db	low _sd000
   127  00080C  08                 	db	high _sd000
   128  00080D  8A                 	db	low _sd001
   129  00080E  08                 	db	high _sd001
   130  00080F  56                 	db	low _sd002
   131  000810  08                 	db	high _sd002
   132  000811                     __end_of_USB_SD_Ptr:
   133                           	opt stack 0
   134  000811                     _USB_CD_Ptr:
   135                           	opt stack 0
   136  000811  13                 	db	low _configDescriptor1
   137  000812  08                 	db	high _configDescriptor1
   138  000813                     __end_of_USB_CD_Ptr:
   139                           	opt stack 0
   140  000813                     _configDescriptor1:
   141                           	opt stack 0
   142  000813  09                 	db	9
   143  000814  02                 	db	2
   144  000815  43                 	db	67
   145  000816  00                 	db	0
   146  000817  02                 	db	2
   147  000818  01                 	db	1
   148  000819  00                 	db	0
   149  00081A  C0                 	db	192
   150  00081B  32                 	db	50
   151  00081C  09                 	db	9
   152  00081D  04                 	db	4
   153  00081E  00                 	db	0
   154  00081F  00                 	db	0
   155  000820  01                 	db	1
   156  000821  02                 	db	2
   157  000822  02                 	db	2
   158  000823  01                 	db	1
   159  000824  00                 	db	0
   160  000825  05                 	db	5
   161  000826  24                 	db	36
   162  000827  00                 	db	0
   163  000828  10                 	db	16
   164  000829  01                 	db	1
   165  00082A  04                 	db	4
   166  00082B  24                 	db	36
   167  00082C  02                 	db	2
   168  00082D  02                 	db	2
   169  00082E  05                 	db	5
   170  00082F  24                 	db	36
   171  000830  06                 	db	6
   172  000831  00                 	db	0
   173  000832  01                 	db	1
   174  000833  05                 	db	5
   175  000834  24                 	db	36
   176  000835  01                 	db	1
   177  000836  00                 	db	0
   178  000837  01                 	db	1
   179  000838  07                 	db	7
   180  000839  05                 	db	5
   181  00083A  81                 	db	129
   182  00083B  03                 	db	3
   183  00083C  08                 	db	8
   184  00083D  00                 	db	0
   185  00083E  02                 	db	2
   186  00083F  09                 	db	9
   187  000840  04                 	db	4
   188  000841  01                 	db	1
   189  000842  00                 	db	0
   190  000843  02                 	db	2
   191  000844  0A                 	db	10
   192  000845  00                 	db	0
   193  000846  00                 	db	0
   194  000847  00                 	db	0
   195  000848  07                 	db	7
   196  000849  05                 	db	5
   197  00084A  02                 	db	2
   198  00084B  02                 	db	2
   199  00084C  40                 	db	64
   200  00084D  00                 	db	0
   201  00084E  00                 	db	0
   202  00084F  07                 	db	7
   203  000850  05                 	db	5
   204  000851  82                 	db	130
   205  000852  02                 	db	2
   206  000853  40                 	db	64
   207  000854  00                 	db	0
   208  000855  00                 	db	0
   209  000856                     __end_of_configDescriptor1:
   210                           	opt stack 0
   211  000856                     _sd002:
   212                           	opt stack 0
   213  000856  34                 	db	52
   214  000857  03                 	db	3
   215  000858  0043               	dw	67
   216  00085A  0044               	dw	68
   217  00085C  0043               	dw	67
   218  00085E  0020               	dw	32
   219  000860  0052               	dw	82
   220  000862  0053               	dw	83
   221  000864  002D               	dw	45
   222  000866  0032               	dw	50
   223  000868  0033               	dw	51
   224  00086A  0032               	dw	50
   225  00086C  0020               	dw	32
   226  00086E  0045               	dw	69
   227  000870  006D               	dw	109
   228  000872  0075               	dw	117
   229  000874  006C               	dw	108
   230  000876  0061               	dw	97
   231  000878  0074               	dw	116
   232  00087A  0069               	dw	105
   233  00087C  006F               	dw	111
   234  00087E  006E               	dw	110
   235  000880  0020               	dw	32
   236  000882  0044               	dw	68
   237  000884  0065               	dw	101
   238  000886  006D               	dw	109
   239  000888  006F               	dw	111
   240  00088A                     __end_of_sd002:
   241                           	opt stack 0
   242  00088A                     _sd001:
   243                           	opt stack 0
   244  00088A  34                 	db	52
   245  00088B  03                 	db	3
   246  00088C  004D               	dw	77
   247  00088E  0069               	dw	105
   248  000890  0063               	dw	99
   249  000892  0072               	dw	114
   250  000894  006F               	dw	111
   251  000896  0063               	dw	99
   252  000898  0068               	dw	104
   253  00089A  0069               	dw	105
   254  00089C  0070               	dw	112
   255  00089E  0020               	dw	32
   256  0008A0  0054               	dw	84
   257  0008A2  0065               	dw	101
   258  0008A4  0063               	dw	99
   259  0008A6  0068               	dw	104
   260  0008A8  006E               	dw	110
   261  0008AA  006F               	dw	111
   262  0008AC  006C               	dw	108
   263  0008AE  006F               	dw	111
   264  0008B0  0067               	dw	103
   265  0008B2  0079               	dw	121
   266  0008B4  0020               	dw	32
   267  0008B6  0049               	dw	73
   268  0008B8  006E               	dw	110
   269  0008BA  0063               	dw	99
   270  0008BC  002E               	dw	46
   271  0008BE                     __end_of_sd001:
   272                           	opt stack 0
   273  0008BE                     _device_dsc:
   274                           	opt stack 0
   275  0008BE  12                 	db	18
   276  0008BF  01                 	db	1
   277  0008C0  0200               	dw	512
   278  0008C2  02                 	db	2
   279  0008C3  00                 	db	0
   280  0008C4  00                 	db	0
   281  0008C5  08                 	db	8
   282  0008C6  04D8               	dw	1240
   283  0008C8  000A               	dw	10
   284  0008CA  0100               	dw	256
   285  0008CC  01                 	db	1
   286  0008CD  02                 	db	2
   287  0008CE  00                 	db	0
   288  0008CF  01                 	db	1
   289  0008D0                     __end_of_device_dsc:
   290                           	opt stack 0
   291  0008D0                     _sd000:
   292                           	opt stack 0
   293  0008D0  04                 	db	4
   294  0008D1  03                 	db	3
   295  0008D2  0409               	dw	1033
   296  0008D4                     __end_of_sd000:
   297                           	opt stack 0
   298  0000                     _TMR0	set	4054
   299  0000                     _PORTCbits	set	3970
   300  0000                     _RCREG	set	4014
   301  0000                     _TXREG	set	4013
   302  0000                     _SPBRG	set	4015
   303  0000                     _TRISAbits	set	3986
   304  0000                     _TRISCbits	set	3988
   305  0000                     _TRISBbits	set	3987
   306  0000                     _PORTAbits	set	3968
   307  0000                     _UEP0bits	set	3952
   308  0000                     _INTCONbits	set	4082
   309  0000                     _IPR2bits	set	4002
   310  0000                     _RCONbits	set	4048
   311  0000                     _UCON	set	3949
   312  0000                     _USTAT	set	3948
   313  0000                     _PIR2bits	set	4001
   314  0000                     _UIEbits	set	3945
   315  0000                     _UIRbits	set	3944
   316  0000                     _UADDR	set	3950
   317  0000                     _UCONbits	set	3949
   318  0000                     _UIE	set	3945
   319  0000                     _UEIE	set	3947
   320  0000                     _UCFG	set	3951
   321  0000                     _UIR	set	3944
   322  0000                     _UEIR	set	3946
   323  0000                     _PIE2bits	set	4000
   324  0000                     _UEP1	set	3953
   325  0000                     _UEP0	set	3952
   326  0000                     _RCIF	set	31989
   327  0000                     _TXIF	set	31988
   328  0000                     _TXEN	set	32101
   329  0000                     _CREN	set	32092
   330  0000                     _TRISC6	set	31910
   331  0000                     _TRISC7	set	31911
   332  0000                     _SPEN	set	32095
   333  0000                     _SYNC	set	32100
   334  0000                     _BRGH	set	32098
   335  0000                     _GIE	set	32663
   336  0000                     _TMR0IE	set	32661
   337  0000                     _T1CKPS1	set	32365
   338  0000                     _T1CKPS0	set	32364
   339  0000                     _TMR1CS	set	32361
   340  0000                     _T0PS2	set	32426
   341  0000                     _T0PS1	set	32425
   342  0000                     _T0PS0	set	32424
   343  0000                     _PSA	set	32427
   344  0000                     _T0CS	set	32429
   345  0000                     _PCFG0	set	32264
   346  0000                     _PCFG1	set	32265
   347  0000                     _PCFG2	set	32266
   348  0000                     _PCFG3	set	32267
   349  0000                     _TMR0IF	set	32658
   350                           
   351                           ; #config settings
   352  0008D4  00                 	db	0	; dummy byte at the end
   353  0000                     
   354                           	psect	cinit
   355  0027EE                     __pcinit:
   356                           	opt stack 0
   357  0027EE                     start_initialization:
   358                           	opt stack 0
   359  0027EE                     __initialization:
   360                           	opt stack 0
   361                           
   362                           ; Clear objects allocated to BANK0 (85 bytes)
   363  0027EE  EE00  F060         	lfsr	0,__pbssBANK0
   364  0027F2  0E55               	movlw	85
   365  0027F4                     clear_0:
   366  0027F4  6AEE               	clrf	postinc0,c
   367  0027F6  06E8               	decf	wreg,f,c
   368  0027F8  E1FD               	bnz	clear_0
   369                           
   370                           ; Clear objects allocated to COMRAM (45 bytes)
   371  0027FA  EE00  F02F         	lfsr	0,__pbssCOMRAM
   372  0027FE  0E2D               	movlw	45
   373  002800                     clear_1:
   374  002800  6AEE               	clrf	postinc0,c
   375  002802  06E8               	decf	wreg,f,c
   376  002804  E1FD               	bnz	clear_1
   377  002806                     end_of_initialization:
   378                           	opt stack 0
   379  002806                     __end_of__initialization:
   380                           	opt stack 0
   381  002806  905C               	bcf	int$flags,0,c	;clear compiler interrupt flag (level 1)
   382  002808  925C               	bcf	int$flags,1,c	;clear compiler interrupt flag (level 2)
   383  00280A  0E00               	movlw	low (__Lmediumconst shr (0+16))
   384  00280C  6EF8               	movwf	tblptru,c
   385  00280E  0100               	movlb	0
   386  002810  EFE4  F012         	goto	_main	;jump to C main() function
   387                           tblptru	equ	0xFF8
   388                           postinc0	equ	0xFEE
   389                           wreg	equ	0xFE8
   390                           
   391                           	psect	bssCOMRAM
   392  00002F                     __pbssCOMRAM:
   393                           	opt stack 0
   394  00002F                     _USB1msTickCount:
   395                           	opt stack 0
   396  00002F                     	ds	4
   397  000033                     _pCDCDst:
   398                           	opt stack 0
   399  000033                     	ds	3
   400  000036                     _pCDCSrc:
   401                           	opt stack 0
   402  000036                     	ds	3
   403  000039                     _tickCounter:
   404                           	opt stack 0
   405  000039                     	ds	2
   406  00003B                     _CDCDataInHandle:
   407                           	opt stack 0
   408  00003B                     	ds	2
   409  00003D                     _pDst:
   410                           	opt stack 0
   411  00003D                     	ds	2
   412  00003F                     _pBDTEntryEP0OutNext:
   413                           	opt stack 0
   414  00003F                     	ds	2
   415  000041                     _pBDTEntryEP0OutCurrent:
   416                           	opt stack 0
   417  000041                     	ds	2
   418  000043                     	ds	1
   419  000044                     _control_signal_bitmap:
   420                           	opt stack 0
   421  000044                     	ds	1
   422  000045                     _cdc_mem_type:
   423                           	opt stack 0
   424  000045                     	ds	1
   425  000046                     _cdc_tx_len:
   426                           	opt stack 0
   427  000046                     	ds	1
   428  000047                     _USBDeferOUTDataStagePackets:
   429                           	opt stack 0
   430  000047                     	ds	1
   431  000048                     _USBDeferINDataStagePackets:
   432                           	opt stack 0
   433  000048                     	ds	1
   434  000049                     _USBStatusStageEnabledFlag2:
   435                           	opt stack 0
   436  000049                     	ds	1
   437  00004A                     _USBStatusStageEnabledFlag1:
   438                           	opt stack 0
   439  00004A                     	ds	1
   440  00004B                     _USBDeferStatusStagePacket:
   441                           	opt stack 0
   442  00004B                     	ds	1
   443  00004C                     _USBStatusStageTimeoutCounter:
   444                           	opt stack 0
   445  00004C                     	ds	1
   446  00004D                     _BothEP0OutUOWNsSet:
   447                           	opt stack 0
   448  00004D                     	ds	1
   449  00004E                     _endpoint_number:
   450                           	opt stack 0
   451  00004E                     	ds	1
   452  00004F                     _RemoteWakeup:
   453                           	opt stack 0
   454  00004F                     	ds	1
   455  000050                     _controlTransferState:
   456                           	opt stack 0
   457  000050                     	ds	1
   458  000051                     _shortPacketStatus:
   459                           	opt stack 0
   460  000051                     	ds	1
   461  000052                     _USBDeviceState:
   462                           	opt stack 0
   463  000052                     	ds	1
   464  000053                     _line_coding:
   465                           	opt stack 0
   466  000053                     	ds	7
   467  00005A                     _USTATcopy:
   468                           	opt stack 0
   469  00005A                     	ds	1
   470  00005B                     _USBActiveConfiguration:
   471                           	opt stack 0
   472  00005B                     	ds	1
   473                           tblptru	equ	0xFF8
   474                           postinc0	equ	0xFEE
   475                           wreg	equ	0xFE8
   476                           
   477                           	psect	bssBANK0
   478  000060                     __pbssBANK0:
   479                           	opt stack 0
   480  000060                     _cdc_notice:
   481                           	opt stack 0
   482  000060                     	ds	10
   483  00006A                     _outPipes:
   484                           	opt stack 0
   485  00006A                     	ds	8
   486  000072                     _pBDTEntryIn:
   487                           	opt stack 0
   488  000072                     	ds	8
   489  00007A                     _pBDTEntryOut:
   490                           	opt stack 0
   491  00007A                     	ds	8
   492  000082                     _inPipes:
   493                           	opt stack 0
   494  000082                     	ds	6
   495  000088                     _BaudRateGen:
   496                           	opt stack 0
   497  000088                     	ds	4
   498  00008C                     _ep_data_out:
   499                           	opt stack 0
   500  00008C                     	ds	4
   501  000090                     _ep_data_in:
   502                           	opt stack 0
   503  000090                     	ds	4
   504  000094                     ActualizarMasterMEF@lux:
   505                           	opt stack 0
   506  000094                     	ds	2
   507  000096                     _tloop:
   508                           	opt stack 0
   509  000096                     	ds	2
   510  000098                     _timeout:
   511                           	opt stack 0
   512  000098                     	ds	2
   513  00009A                     _tinicio:
   514                           	opt stack 0
   515  00009A                     	ds	2
   516  00009C                     _CDCDataOutHandle:
   517                           	opt stack 0
   518  00009C                     	ds	2
   519  00009E                     ActualizarMasterMEF@temp:
   520                           	opt stack 0
   521  00009E                     	ds	1
   522  00009F                     ActualizarMasterMEF@i:
   523                           	opt stack 0
   524  00009F                     	ds	1
   525  0000A0                     ActualizarMasterMEF@target:
   526                           	opt stack 0
   527  0000A0                     	ds	1
   528  0000A1                     _estadoActual:
   529                           	opt stack 0
   530  0000A1                     	ds	1
   531  0000A2                     _cdc_trf_state:
   532                           	opt stack 0
   533  0000A2                     	ds	1
   534  0000A3                     _cdc_rx_len:
   535                           	opt stack 0
   536  0000A3                     	ds	1
   537  0000A4                     _USBTicksSinceSuspendEnd:
   538                           	opt stack 0
   539  0000A4                     	ds	1
   540  0000A5                     _USBBusIsSuspended:
   541                           	opt stack 0
   542  0000A5                     	ds	1
   543  0000A6                     _dummy_encapsulated_cmd_response:
   544                           	opt stack 0
   545  0000A6                     	ds	8
   546  0000AE                     _USBAlternateInterface:
   547                           	opt stack 0
   548  0000AE                     	ds	4
   549  0000B2                     ActualizarMasterMEF@datousb:
   550                           	opt stack 0
   551  0000B2                     	ds	1
   552  0000B3                     ActualizarMasterMEF@aux:
   553                           	opt stack 0
   554  0000B3                     	ds	1
   555  0000B4                     ActualizarMasterMEF@data:
   556                           	opt stack 0
   557  0000B4                     	ds	1
   558                           tblptru	equ	0xFF8
   559                           postinc0	equ	0xFEE
   560                           wreg	equ	0xFE8
   561                           
   562                           	psect	cstackBANK0
   563  0000B5                     __pcstackBANK0:
   564                           	opt stack 0
   565  0000B5                     ?_USBTransferOnePacket:
   566                           	opt stack 0
   567  0000B5                     ?_tickRead:
   568                           	opt stack 0
   569  0000B5                     USBTransferOnePacket@dir:
   570                           	opt stack 0
   571  0000B5                     uartWriteByte@value:
   572                           	opt stack 0
   573  0000B5                     putUSBUSART@data:
   574                           	opt stack 0
   575  0000B5                     uartReadByte@receivedByte:
   576                           	opt stack 0
   577  0000B5                     memset@p1:
   578                           	opt stack 0
   579                           
   580                           ; 2 bytes @ 0x0
   581  0000B5                     	ds	1
   582  0000B6                     USBTransferOnePacket@data:
   583                           	opt stack 0
   584                           
   585                           ; 2 bytes @ 0x1
   586  0000B6                     	ds	1
   587  0000B7                     putUSBUSART@length:
   588                           	opt stack 0
   589  0000B7                     tickRead@aux:
   590                           	opt stack 0
   591  0000B7                     memset@c:
   592                           	opt stack 0
   593                           
   594                           ; 2 bytes @ 0x2
   595  0000B7                     	ds	1
   596  0000B8                     USBTransferOnePacket@len:
   597                           	opt stack 0
   598                           
   599                           ; 1 bytes @ 0x3
   600  0000B8                     	ds	1
   601  0000B9                     ??_USBTransferOnePacket:
   602  0000B9                     memset@n:
   603                           	opt stack 0
   604                           
   605                           ; 2 bytes @ 0x4
   606  0000B9                     	ds	2
   607  0000BB                     memset@p:
   608                           	opt stack 0
   609                           
   610                           ; 2 bytes @ 0x6
   611  0000BB                     	ds	2
   612  0000BD                     USBDeviceInit@i:
   613                           	opt stack 0
   614  0000BD                     USBTransferOnePacket@ep:
   615                           	opt stack 0
   616                           
   617                           ; 1 bytes @ 0x8
   618  0000BD                     	ds	1
   619  0000BE                     USBTransferOnePacket@handle:
   620                           	opt stack 0
   621                           
   622                           ; 2 bytes @ 0x9
   623  0000BE                     	ds	2
   624  0000C0                     CDCTxService@i:
   625                           	opt stack 0
   626  0000C0                     getsUSBUSART@buffer:
   627                           	opt stack 0
   628                           
   629                           ; 2 bytes @ 0xB
   630  0000C0                     	ds	1
   631  0000C1                     CDCTxService@byte_to_send:
   632                           	opt stack 0
   633                           
   634                           ; 1 bytes @ 0xC
   635  0000C1                     	ds	1
   636  0000C2                     ??_USBuartWriteByte:
   637  0000C2                     getsUSBUSART@len:
   638                           	opt stack 0
   639                           
   640                           ; 1 bytes @ 0xD
   641  0000C2                     	ds	1
   642  0000C3                     USBuartWriteByte@dato:
   643                           	opt stack 0
   644                           
   645                           ; 1 bytes @ 0xE
   646  0000C3                     	ds	1
   647  0000C4                     USBuartReadByte@receivedByte:
   648                           	opt stack 0
   649                           
   650                           ; 2 bytes @ 0xF
   651  0000C4                     	ds	2
   652  0000C6                     USBuartReadByte@numBytesRead:
   653                           	opt stack 0
   654                           
   655                           ; 1 bytes @ 0x11
   656  0000C6                     	ds	1
   657  0000C7                     ??_ActualizarMasterMEF:
   658                           
   659                           ; 1 bytes @ 0x12
   660  0000C7                     	ds	2
   661  0000C9                     ActualizarMasterMEF@pkg:
   662                           	opt stack 0
   663                           
   664                           ; 6 bytes @ 0x14
   665  0000C9                     	ds	6
   666  0000CF                     main@tick:
   667                           	opt stack 0
   668                           
   669                           ; 4 bytes @ 0x1A
   670  0000CF                     	ds	4
   671  0000D3                     main@tinicio:
   672                           	opt stack 0
   673                           
   674                           ; 2 bytes @ 0x1E
   675  0000D3                     	ds	2
   676  0000D5                     main@x:
   677                           	opt stack 0
   678                           
   679                           ; 1 bytes @ 0x20
   680  0000D5                     	ds	1
   681                           tblptru	equ	0xFF8
   682                           postinc0	equ	0xFEE
   683                           wreg	equ	0xFE8
   684                           
   685                           	psect	cstackCOMRAM
   686  000001                     __pcstackCOMRAM:
   687                           	opt stack 0
   688  000001                     ??_USBStdGetDscHandler:
   689  000001                     ??_USBStdGetStatusHandler:
   690  000001                     ?i2_USBTransferOnePacket:
   691                           	opt stack 0
   692  000001                     USBConfigureEndpoint@direction:
   693                           	opt stack 0
   694  000001                     USBCtrlTrfTxService@byteToSend:
   695                           	opt stack 0
   696  000001                     USBCtrlTrfRxService@i:
   697                           	opt stack 0
   698  000001                     i2USBTransferOnePacket@dir:
   699                           	opt stack 0
   700  000001                     memcpy@d1:
   701                           	opt stack 0
   702  000001                     i2memset@p1:
   703                           	opt stack 0
   704                           
   705                           ; 2 bytes @ 0x0
   706  000001                     	ds	1
   707  000002                     ??_USBConfigureEndpoint:
   708  000002                     USBCtrlTrfRxService@byteToRead:
   709                           	opt stack 0
   710  000002                     USBCtrlTrfInHandler@lastDTS:
   711                           	opt stack 0
   712  000002                     USBStdGetStatusHandler@p:
   713                           	opt stack 0
   714  000002                     i2USBTransferOnePacket@data:
   715                           	opt stack 0
   716                           
   717                           ; 2 bytes @ 0x1
   718  000002                     	ds	1
   719  000003                     memcpy@s1:
   720                           	opt stack 0
   721  000003                     i2memset@c:
   722                           	opt stack 0
   723                           
   724                           ; 2 bytes @ 0x2
   725  000003                     	ds	1
   726  000004                     i2USBTransferOnePacket@len:
   727                           	opt stack 0
   728                           
   729                           ; 1 bytes @ 0x3
   730  000004                     	ds	1
   731  000005                     ??i2_USBTransferOnePacket:
   732  000005                     memcpy@n:
   733                           	opt stack 0
   734  000005                     i2memset@n:
   735                           	opt stack 0
   736                           
   737                           ; 2 bytes @ 0x4
   738  000005                     	ds	1
   739  000006                     USBConfigureEndpoint@EPNum:
   740                           	opt stack 0
   741                           
   742                           ; 1 bytes @ 0x5
   743  000006                     	ds	1
   744  000007                     USBConfigureEndpoint@handle:
   745                           	opt stack 0
   746  000007                     memcpy@d:
   747                           	opt stack 0
   748  000007                     i2memset@p:
   749                           	opt stack 0
   750                           
   751                           ; 2 bytes @ 0x6
   752  000007                     	ds	2
   753  000009                     USBEnableEndpoint@options:
   754                           	opt stack 0
   755  000009                     i2USBDeviceInit@i:
   756                           	opt stack 0
   757  000009                     i2USBTransferOnePacket@ep:
   758                           	opt stack 0
   759  000009                     memcpy@s:
   760                           	opt stack 0
   761                           
   762                           ; 2 bytes @ 0x8
   763  000009                     	ds	1
   764  00000A                     USBEnableEndpoint@p:
   765                           	opt stack 0
   766  00000A                     i2USBTransferOnePacket@handle:
   767                           	opt stack 0
   768                           
   769                           ; 2 bytes @ 0x9
   770  00000A                     	ds	1
   771  00000B                     memcpy@tmp:
   772                           	opt stack 0
   773                           
   774                           ; 1 bytes @ 0xA
   775  00000B                     	ds	1
   776  00000C                     USBEnableEndpoint@ep:
   777                           	opt stack 0
   778                           
   779                           ; 1 bytes @ 0xB
   780  00000C                     	ds	1
   781  00000D                     USER_USB_CALLBACK_EVENT_HANDLER@event:
   782                           	opt stack 0
   783                           
   784                           ; 2 bytes @ 0xC
   785  00000D                     	ds	2
   786  00000F                     USER_USB_CALLBACK_EVENT_HANDLER@pdata:
   787                           	opt stack 0
   788                           
   789                           ; 2 bytes @ 0xE
   790  00000F                     	ds	2
   791  000011                     USER_USB_CALLBACK_EVENT_HANDLER@size:
   792                           	opt stack 0
   793                           
   794                           ; 2 bytes @ 0x10
   795  000011                     	ds	2
   796  000013                     ??_USER_USB_CALLBACK_EVENT_HANDLER:
   797                           
   798                           ; 1 bytes @ 0x12
   799  000013                     	ds	2
   800  000015                     ??_USBStdFeatureReqHandler:
   801  000015                     USBStdSetCfgHandler@i:
   802                           	opt stack 0
   803                           
   804                           ; 1 bytes @ 0x14
   805  000015                     	ds	1
   806  000016                     USBStdFeatureReqHandler@pUEP:
   807                           	opt stack 0
   808                           
   809                           ; 2 bytes @ 0x15
   810  000016                     	ds	2
   811  000018                     USBStdFeatureReqHandler@current_ep_data:
   812                           	opt stack 0
   813                           
   814                           ; 1 bytes @ 0x17
   815  000018                     	ds	1
   816  000019                     USBStdFeatureReqHandler@p:
   817                           	opt stack 0
   818                           
   819                           ; 2 bytes @ 0x18
   820  000019                     	ds	2
   821  00001B                     ??_USBCtrlEPService:
   822  00001B                     
   823                           ; 1 bytes @ 0x1A
   824  00001B                     	ds	1
   825  00001C                     USBDeviceTasks@i:
   826                           	opt stack 0
   827                           
   828                           ; 1 bytes @ 0x1B
   829  00001C                     	ds	1
   830  00001D                     ??_isr:
   831                           
   832                           ; 1 bytes @ 0x1C
   833  00001D                     	ds	18
   834                           tblptru	equ	0xFF8
   835                           postinc0	equ	0xFEE
   836                           wreg	equ	0xFE8
   837                           
   838 ;;
   839 ;;Main: autosize = 0, tempsize = 0, incstack = 0, save=0
   840 ;;
   841 ;; *************** function _main *****************
   842 ;; Defined at:
   843 ;;		line 28 in file "main.c"
   844 ;; Parameters:    Size  Location     Type
   845 ;;		None
   846 ;; Auto vars:     Size  Location     Type
   847 ;;  tick            4   26[BANK0 ] unsigned long 
   848 ;;  tinicio         2   30[BANK0 ] unsigned int 
   849 ;;  data            2    0        unsigned char [2]
   850 ;;  tloop           2    0        unsigned int 
   851 ;;  x               1   32[BANK0 ] unsigned char 
   852 ;;  n               1    0        unsigned char 
   853 ;;  byte            1    0        unsigned char 
   854 ;; Return value:  Size  Location     Type
   855 ;;                  1    wreg      void 
   856 ;; Registers used:
   857 ;;		wreg, fsr1l, fsr1h, fsr2l, fsr2h, status,2, status,0, prodl, prodh, cstack
   858 ;; Tracked objects:
   859 ;;		On entry : 0/0
   860 ;;		On exit  : 0/0
   861 ;;		Unchanged: 0/0
   862 ;; Data sizes:     COMRAM   BANK0   BANK1   BANK2   BANK3   BANK4   BANK5   BANK6   BANK7
   863 ;;      Params:         0       0       0       0       0       0       0       0       0
   864 ;;      Locals:         0       7       0       0       0       0       0       0       0
   865 ;;      Temps:          0       0       0       0       0       0       0       0       0
   866 ;;      Totals:         0       7       0       0       0       0       0       0       0
   867 ;;Total ram usage:        7 bytes
   868 ;; Hardware stack levels required when called:   14
   869 ;; This function calls:
   870 ;;		_ActualizarMasterMEF
   871 ;;		_IniciarMasterMEF
   872 ;;		_USBuartConfig
   873 ;;		_initApp
   874 ;;		_tickRead
   875 ;; This function is called by:
   876 ;;		Startup code after reset
   877 ;; This function uses a non-reentrant model
   878 ;;
   879                           
   880                           	psect	text0
   881  0025C8                     __ptext0:
   882                           	opt stack 0
   883  0025C8                     _main:
   884                           	opt stack 17
   885                           
   886                           ;main.c: 30: uint8_t byte;
   887                           ;main.c: 31: uint32_t tick = 0;
   888                           
   889                           ;incstack = 0
   890  0025C8  0E00               	movlw	0
   891  0025CA  0100               	movlb	0	; () banked
   892  0025CC  6FCF               	movwf	main@tick& (0+255),b
   893  0025CE  0E00               	movlw	0
   894  0025D0  6FD0               	movwf	(main@tick+1)& (0+255),b
   895  0025D2  0E00               	movlw	0
   896  0025D4  6FD1               	movwf	(main@tick+2)& (0+255),b
   897  0025D6  0E00               	movlw	0
   898  0025D8  6FD2               	movwf	(main@tick+3)& (0+255),b
   899                           
   900                           ; BSR set to: 0
   901                           ;main.c: 33: USBuartConfig();
   902  0025DA  EC72  F014         	call	_USBuartConfig	;wreg free
   903                           
   904                           ;main.c: 34: initApp();
   905  0025DE  EC64  F013         	call	_initApp	;wreg free
   906                           
   907                           ;main.c: 35: tick_t tinicio, tloop;
   908                           ;main.c: 36: tinicio=tickRead();
   909  0025E2  EC56  F014         	call	_tickRead	;wreg free
   910  0025E6  C0B5  F0D3         	movff	?_tickRead,main@tinicio
   911  0025EA  C0B6  F0D4         	movff	?_tickRead+1,main@tinicio+1
   912                           
   913                           ;main.c: 37: uint8_t n,x=0,data[2];
   914  0025EE  0E00               	movlw	0
   915  0025F0  0100               	movlb	0	; () banked
   916  0025F2  6FD5               	movwf	main@x& (0+255),b
   917                           
   918                           ; BSR set to: 0
   919                           ;main.c: 38: initApp();
   920  0025F4  EC64  F013         	call	_initApp	;wreg free
   921                           
   922                           ;main.c: 39: PORTAbits.RA3 = 0;
   923  0025F8  9680               	bcf	3968,3,c	;volatile
   924                           
   925                           ;main.c: 40: PORTAbits.RA2 = 0;
   926  0025FA  9480               	bcf	3968,2,c	;volatile
   927                           
   928                           ;main.c: 41: PORTAbits.RA1 = 0;
   929  0025FC  9280               	bcf	3968,1,c	;volatile
   930                           
   931                           ;main.c: 42: PORTAbits.RA0 = 1;
   932  0025FE  8080               	bsf	3968,0,c	;volatile
   933                           
   934                           ;main.c: 43: IniciarMasterMEF();
   935  002600  EC1B  F014         	call	_IniciarMasterMEF	;wreg free
   936  002604                     
   937                           ;main.c: 45: ActualizarMasterMEF();
   938  002604  EC6B  F004         	call	_ActualizarMasterMEF	;wreg free
   939  002608  D7FD               	goto	l570
   940  00260A                     __end_of_main:
   941                           	opt stack 0
   942                           tblptru	equ	0xFF8
   943                           postinc0	equ	0xFEE
   944                           wreg	equ	0xFE8
   945                           
   946 ;; *************** function _initApp *****************
   947 ;; Defined at:
   948 ;;		line 47 in file "user.c"
   949 ;; Parameters:    Size  Location     Type
   950 ;;		None
   951 ;; Auto vars:     Size  Location     Type
   952 ;;		None
   953 ;; Return value:  Size  Location     Type
   954 ;;                  1    wreg      void 
   955 ;; Registers used:
   956 ;;		wreg, status,2, cstack
   957 ;; Tracked objects:
   958 ;;		On entry : 0/0
   959 ;;		On exit  : 0/0
   960 ;;		Unchanged: 0/0
   961 ;; Data sizes:     COMRAM   BANK0   BANK1   BANK2   BANK3   BANK4   BANK5   BANK6   BANK7
   962 ;;      Params:         0       0       0       0       0       0       0       0       0
   963 ;;      Locals:         0       0       0       0       0       0       0       0       0
   964 ;;      Temps:          0       0       0       0       0       0       0       0       0
   965 ;;      Totals:         0       0       0       0       0       0       0       0       0
   966 ;;Total ram usage:        0 bytes
   967 ;; Hardware stack levels used:    1
   968 ;; Hardware stack levels required when called:   11
   969 ;; This function calls:
   970 ;;		_uartConfig
   971 ;; This function is called by:
   972 ;;		_main
   973 ;; This function uses a non-reentrant model
   974 ;;
   975                           
   976                           	psect	text1
   977  0026C8                     __ptext1:
   978                           	opt stack 0
   979  0026C8                     _initApp:
   980                           	opt stack 19
   981                           
   982                           ;user.c: 51: PCFG3=1;
   983                           
   984                           ;incstack = 0
   985  0026C8  86C1               	bsf	4033,3,c	;volatile
   986                           
   987                           ;user.c: 52: PCFG2=1;
   988  0026CA  84C1               	bsf	4033,2,c	;volatile
   989                           
   990                           ;user.c: 53: PCFG1=1;
   991  0026CC  82C1               	bsf	4033,1,c	;volatile
   992                           
   993                           ;user.c: 54: PCFG0=1;
   994  0026CE  80C1               	bsf	4033,0,c	;volatile
   995                           
   996                           ;user.c: 56: TRISBbits.TRISB0 = 1;
   997  0026D0  8093               	bsf	3987,0,c	;volatile
   998                           
   999                           ;user.c: 57: TRISBbits.TRISB1 = 1;
  1000  0026D2  8293               	bsf	3987,1,c	;volatile
  1001                           
  1002                           ;user.c: 58: TRISBbits.TRISB2 = 1;
  1003  0026D4  8493               	bsf	3987,2,c	;volatile
  1004                           
  1005                           ;user.c: 59: TRISBbits.TRISB3 = 1;
  1006  0026D6  8693               	bsf	3987,3,c	;volatile
  1007                           
  1008                           ;user.c: 60: TRISCbits.TRISC1=0;
  1009  0026D8  9294               	bcf	3988,1,c	;volatile
  1010                           
  1011                           ;user.c: 61: TRISCbits.TRISC0=0;
  1012  0026DA  9094               	bcf	3988,0,c	;volatile
  1013                           
  1014                           ;user.c: 63: TRISAbits.TRISA3 = 0;
  1015  0026DC  9692               	bcf	3986,3,c	;volatile
  1016                           
  1017                           ;user.c: 64: TRISAbits.TRISA2 = 0;
  1018  0026DE  9492               	bcf	3986,2,c	;volatile
  1019                           
  1020                           ;user.c: 65: TRISAbits.TRISA1 = 0;
  1021  0026E0  9292               	bcf	3986,1,c	;volatile
  1022                           
  1023                           ;user.c: 66: TRISAbits.TRISA0 = 0;
  1024  0026E2  9092               	bcf	3986,0,c	;volatile
  1025                           
  1026                           ;user.c: 67: uartConfig();
  1027  0026E4  EC61  F014         	call	_uartConfig	;wreg free
  1028                           
  1029                           ;user.c: 70: T0CS = 0;
  1030  0026E8  9AD5               	bcf	4053,5,c	;volatile
  1031                           
  1032                           ;user.c: 71: PSA = 0;
  1033  0026EA  96D5               	bcf	4053,3,c	;volatile
  1034                           
  1035                           ;user.c: 74: T0PS0=1;
  1036  0026EC  80D5               	bsf	4053,0,c	;volatile
  1037                           
  1038                           ;user.c: 75: T0PS1=1;
  1039  0026EE  82D5               	bsf	4053,1,c	;volatile
  1040                           
  1041                           ;user.c: 76: T0PS2=0;
  1042  0026F0  94D5               	bcf	4053,2,c	;volatile
  1043                           
  1044                           ;user.c: 86: TMR1CS = 0;
  1045  0026F2  92CD               	bcf	4045,1,c	;volatile
  1046                           
  1047                           ;user.c: 87: T1CKPS0 = 0;
  1048  0026F4  98CD               	bcf	4045,4,c	;volatile
  1049                           
  1050                           ;user.c: 88: T1CKPS1 = 0;
  1051  0026F6  9ACD               	bcf	4045,5,c	;volatile
  1052                           
  1053                           ;user.c: 99: TMR0IE = 1;
  1054  0026F8  8AF2               	bsf	intcon,5,c	;volatile
  1055                           
  1056                           ;user.c: 101: GIE = 1;
  1057  0026FA  8EF2               	bsf	intcon,7,c	;volatile
  1058  0026FC  0012               	return		;funcret
  1059  0026FE                     __end_of_initApp:
  1060                           	opt stack 0
  1061                           tblptru	equ	0xFF8
  1062                           intcon	equ	0xFF2
  1063                           postinc0	equ	0xFEE
  1064                           wreg	equ	0xFE8
  1065                           
  1066 ;; *************** function _uartConfig *****************
  1067 ;; Defined at:
  1068 ;;		line 111 in file "user.c"
  1069 ;; Parameters:    Size  Location     Type
  1070 ;;		None
  1071 ;; Auto vars:     Size  Location     Type
  1072 ;;		None
  1073 ;; Return value:  Size  Location     Type
  1074 ;;                  1    wreg      void 
  1075 ;; Registers used:
  1076 ;;		wreg, status,2
  1077 ;; Tracked objects:
  1078 ;;		On entry : 0/0
  1079 ;;		On exit  : 0/0
  1080 ;;		Unchanged: 0/0
  1081 ;; Data sizes:     COMRAM   BANK0   BANK1   BANK2   BANK3   BANK4   BANK5   BANK6   BANK7
  1082 ;;      Params:         0       0       0       0       0       0       0       0       0
  1083 ;;      Locals:         0       0       0       0       0       0       0       0       0
  1084 ;;      Temps:          0       0       0       0       0       0       0       0       0
  1085 ;;      Totals:         0       0       0       0       0       0       0       0       0
  1086 ;;Total ram usage:        0 bytes
  1087 ;; Hardware stack levels used:    1
  1088 ;; Hardware stack levels required when called:   10
  1089 ;; This function calls:
  1090 ;;		Nothing
  1091 ;; This function is called by:
  1092 ;;		_initApp
  1093 ;; This function uses a non-reentrant model
  1094 ;;
  1095                           
  1096                           	psect	text2
  1097  0028C2                     __ptext2:
  1098                           	opt stack 0
  1099  0028C2                     _uartConfig:
  1100                           	opt stack 19
  1101                           
  1102                           ;user.c: 119: SPBRG = (16000000L - 9600 * 16L) / (9600 * 16L);
  1103                           
  1104                           ;incstack = 0
  1105  0028C2  0E67               	movlw	103
  1106  0028C4  6EAF               	movwf	4015,c	;volatile
  1107                           
  1108                           ;user.c: 120: BRGH = 1;
  1109  0028C6  84AC               	bsf	4012,2,c	;volatile
  1110                           
  1111                           ;user.c: 122: SYNC = 0;
  1112  0028C8  98AC               	bcf	4012,4,c	;volatile
  1113                           
  1114                           ;user.c: 123: SPEN = 1;
  1115  0028CA  8EAB               	bsf	4011,7,c	;volatile
  1116                           
  1117                           ;user.c: 124: TRISC7 = 1;
  1118  0028CC  8E94               	bsf	3988,7,c	;volatile
  1119                           
  1120                           ;user.c: 125: TRISC6 = 1;
  1121  0028CE  8C94               	bsf	3988,6,c	;volatile
  1122                           
  1123                           ;user.c: 126: CREN = 1;
  1124  0028D0  88AB               	bsf	4011,4,c	;volatile
  1125                           
  1126                           ;user.c: 127: TXEN = 1;
  1127  0028D2  8AAC               	bsf	4012,5,c	;volatile
  1128  0028D4  0012               	return		;funcret
  1129  0028D6                     __end_of_uartConfig:
  1130                           	opt stack 0
  1131                           tblptru	equ	0xFF8
  1132                           intcon	equ	0xFF2
  1133                           postinc0	equ	0xFEE
  1134                           wreg	equ	0xFE8
  1135                           
  1136 ;; *************** function _USBuartConfig *****************
  1137 ;; Defined at:
  1138 ;;		line 13 in file "usb_uart.c"
  1139 ;; Parameters:    Size  Location     Type
  1140 ;;		None
  1141 ;; Auto vars:     Size  Location     Type
  1142 ;;		None
  1143 ;; Return value:  Size  Location     Type
  1144 ;;                  1    wreg      void 
  1145 ;; Registers used:
  1146 ;;		wreg, fsr2l, fsr2h, status,2, status,0, prodl, prodh, cstack
  1147 ;; Tracked objects:
  1148 ;;		On entry : 0/0
  1149 ;;		On exit  : 0/0
  1150 ;;		Unchanged: 0/0
  1151 ;; Data sizes:     COMRAM   BANK0   BANK1   BANK2   BANK3   BANK4   BANK5   BANK6   BANK7
  1152 ;;      Params:         0       0       0       0       0       0       0       0       0
  1153 ;;      Locals:         0       0       0       0       0       0       0       0       0
  1154 ;;      Temps:          0       0       0       0       0       0       0       0       0
  1155 ;;      Totals:         0       0       0       0       0       0       0       0       0
  1156 ;;Total ram usage:        0 bytes
  1157 ;; Hardware stack levels used:    1
  1158 ;; Hardware stack levels required when called:   12
  1159 ;; This function calls:
  1160 ;;		_USBDeviceAttach
  1161 ;;		_USBDeviceInit
  1162 ;; This function is called by:
  1163 ;;		_main
  1164 ;; This function uses a non-reentrant model
  1165 ;;
  1166                           
  1167                           	psect	text3
  1168  0028E4                     __ptext3:
  1169                           	opt stack 0
  1170  0028E4                     _USBuartConfig:
  1171                           	opt stack 18
  1172                           
  1173                           ;usb_uart.c: 14: USBDeviceInit();
  1174                           
  1175                           ;incstack = 0
  1176  0028E4  EC92  F008         	call	_USBDeviceInit	;wreg free
  1177                           
  1178                           ;usb_uart.c: 15: USBDeviceAttach();
  1179  0028E8  ECB2  F013         	call	_USBDeviceAttach	;wreg free
  1180  0028EC  0012               	return		;funcret
  1181  0028EE                     __end_of_USBuartConfig:
  1182                           	opt stack 0
  1183                           tblptru	equ	0xFF8
  1184                           intcon	equ	0xFF2
  1185                           postinc0	equ	0xFEE
  1186                           wreg	equ	0xFE8
  1187                           
  1188 ;; *************** function _USBDeviceInit *****************
  1189 ;; Defined at:
  1190 ;;		line 277 in file "usb/src/usb_device.c"
  1191 ;; Parameters:    Size  Location     Type
  1192 ;;		None
  1193 ;; Auto vars:     Size  Location     Type
  1194 ;;  i               1    8[BANK0 ] unsigned char 
  1195 ;; Return value:  Size  Location     Type
  1196 ;;                  1    wreg      void 
  1197 ;; Registers used:
  1198 ;;		wreg, fsr2l, fsr2h, status,2, status,0, prodl, prodh, cstack
  1199 ;; Tracked objects:
  1200 ;;		On entry : 0/0
  1201 ;;		On exit  : 0/0
  1202 ;;		Unchanged: 0/0
  1203 ;; Data sizes:     COMRAM   BANK0   BANK1   BANK2   BANK3   BANK4   BANK5   BANK6   BANK7
  1204 ;;      Params:         0       0       0       0       0       0       0       0       0
  1205 ;;      Locals:         0       1       0       0       0       0       0       0       0
  1206 ;;      Temps:          0       0       0       0       0       0       0       0       0
  1207 ;;      Totals:         0       1       0       0       0       0       0       0       0
  1208 ;;Total ram usage:        1 bytes
  1209 ;; Hardware stack levels used:    1
  1210 ;; Hardware stack levels required when called:   11
  1211 ;; This function calls:
  1212 ;;		_memset
  1213 ;; This function is called by:
  1214 ;;		_USBuartConfig
  1215 ;; This function uses a non-reentrant model
  1216 ;;
  1217                           
  1218                           	psect	text4
  1219  001124                     __ptext4:
  1220                           	opt stack 0
  1221  001124                     _USBDeviceInit:
  1222                           	opt stack 18
  1223                           
  1224                           ;usb_device.c: 279: uint8_t i;
  1225                           ;usb_device.c: 281: {PIE2bits.USBIE = 0;};
  1226                           
  1227                           ;incstack = 0
  1228  001124  9AA0               	bcf	4000,5,c	;volatile
  1229                           
  1230                           ;usb_device.c: 285: ;
  1231                           ;usb_device.c: 288: {UEIR = 0;};
  1232  001126  0E00               	movlw	0
  1233  001128  6E6A               	movwf	3946,c	;volatile
  1234                           
  1235                           ;usb_device.c: 291: {UIR = 0;};
  1236  00112A  0E00               	movlw	0
  1237  00112C  6E68               	movwf	3944,c	;volatile
  1238                           
  1239                           ;usb_device.c: 294: UEP0 = 0;
  1240  00112E  0E00               	movlw	0
  1241  001130  6E70               	movwf	3952,c	;volatile
  1242                           
  1243                           ;usb_device.c: 296: memset((void*)&UEP1,0x00,(3));;
  1244  001132  0E71               	movlw	113
  1245  001134  0100               	movlb	0	; () banked
  1246  001136  6FB5               	movwf	memset@p1& (0+255),b
  1247  001138  0E0F               	movlw	15
  1248  00113A  6FB6               	movwf	(memset@p1+1)& (0+255),b
  1249  00113C  0E00               	movlw	0
  1250  00113E  6FB8               	movwf	(memset@c+1)& (0+255),b
  1251  001140  0E00               	movlw	0
  1252  001142  6FB7               	movwf	memset@c& (0+255),b
  1253  001144  0E00               	movlw	0
  1254  001146  6FBA               	movwf	(memset@n+1)& (0+255),b
  1255  001148  0E03               	movlw	3
  1256  00114A  6FB9               	movwf	memset@n& (0+255),b
  1257  00114C  EC9A  F013         	call	_memset	;wreg free
  1258                           
  1259                           ;usb_device.c: 298: { UCFG = 0x10 | 0x00 | 0x04 | 0x02; UEIE = 0x9F; UIE = 0x39 | 0x40 |
      +                           0x02; };
  1260  001150  0E16               	movlw	22
  1261  001152  6E6F               	movwf	3951,c	;volatile
  1262  001154  0E9F               	movlw	159
  1263  001156  6E6B               	movwf	3947,c	;volatile
  1264  001158  0E7B               	movlw	123
  1265  00115A  6E69               	movwf	3945,c	;volatile
  1266                           
  1267                           ;usb_device.c: 301: ;
  1268                           ;usb_device.c: 304: ;
  1269                           ;usb_device.c: 307: for(i = 0; i < (sizeof(BDT)/sizeof(BDT_ENTRY)); i++)
  1270  00115C  0E00               	movlw	0
  1271  00115E  0100               	movlb	0	; () banked
  1272  001160  6FBD               	movwf	USBDeviceInit@i& (0+255),b
  1273  001162                     l4959:
  1274                           
  1275                           ; BSR set to: 0
  1276  001162  0E0F               	movlw	15
  1277  001164  65BD               	cpfsgt	USBDeviceInit@i& (0+255),b
  1278  001166  D001               	goto	l174
  1279  001168  D00E               	goto	u4350
  1280  00116A                     l174:
  1281                           
  1282                           ; BSR set to: 0
  1283                           ;usb_device.c: 308: {
  1284                           ;usb_device.c: 309: BDT[i].Val = 0x00;
  1285                           
  1286                           ; BSR set to: 0
  1287  00116A  51BD               	movf	USBDeviceInit@i& (0+255),w,b
  1288  00116C  0D04               	mullw	4
  1289  00116E  0E00               	movlw	0
  1290  001170  24F3               	addwf	prodl,w,c
  1291  001172  6ED9               	movwf	fsr2l,c
  1292  001174  0E04               	movlw	4
  1293  001176  20F4               	addwfc	prodh,w,c
  1294  001178  6EDA               	movwf	fsr2h,c
  1295  00117A  6ADE               	clrf	postinc2,c
  1296  00117C  6ADE               	clrf	postinc2,c
  1297  00117E  6ADE               	clrf	postinc2,c
  1298  001180  6ADD               	clrf	postdec2,c
  1299                           
  1300                           ; BSR set to: 0
  1301  001182  2BBD               	incf	USBDeviceInit@i& (0+255),f,b
  1302  001184  D7EE               	goto	l4959
  1303  001186                     u4350:
  1304                           
  1305                           ; BSR set to: 0
  1306                           ;usb_device.c: 310: }
  1307                           ;usb_device.c: 313: UCONbits.PPBRST = 1;
  1308  001186  8C6D               	bsf	3949,6,c	;volatile
  1309                           
  1310                           ; BSR set to: 0
  1311                           ;usb_device.c: 316: UADDR = 0x00;
  1312  001188  0E00               	movlw	0
  1313  00118A  6E6E               	movwf	3950,c	;volatile
  1314                           
  1315                           ; BSR set to: 0
  1316                           ;usb_device.c: 319: UCONbits.PKTDIS = 0;
  1317  00118C  986D               	bcf	3949,4,c	;volatile
  1318                           
  1319                           ; BSR set to: 0
  1320                           ;usb_device.c: 322: UCONbits.PPBRST = 0;
  1321  00118E  9C6D               	bcf	3949,6,c	;volatile
  1322  001190                     
  1323                           ; BSR set to: 0
  1324                           ;usb_device.c: 326: {
  1325                           ;usb_device.c: 327: (UIR &= 0xF7);
  1326                           
  1327                           ; BSR set to: 0
  1328  001190  9668               	bcf	3944,3,c	;volatile
  1329                           
  1330                           ; BSR set to: 0
  1331                           ;usb_device.c: 329: inPipes[0].info.Val = 0;
  1332  001192  0E00               	movlw	0
  1333  001194  6F85               	movwf	(_inPipes+3)& (0+255),b	;volatile
  1334                           
  1335                           ; BSR set to: 0
  1336                           ;usb_device.c: 330: outPipes[0].info.Val = 0;
  1337  001196  0E00               	movlw	0
  1338  001198  6F6D               	movwf	(_outPipes+3)& (0+255),b	;volatile
  1339                           
  1340                           ; BSR set to: 0
  1341                           ;usb_device.c: 331: outPipes[0].wCount.Val = 0;
  1342  00119A  0E00               	movlw	0
  1343  00119C  6F6F               	movwf	(_outPipes+5)& (0+255),b	;volatile
  1344  00119E  0E00               	movlw	0
  1345  0011A0  6F6E               	movwf	(_outPipes+4)& (0+255),b	;volatile
  1346                           
  1347                           ; BSR set to: 0
  1348                           ;usb_device.c: 332: }while(UIRbits.TRNIF == 1);
  1349  0011A2  B668               	btfsc	3944,3,c	;volatile
  1350  0011A4  D7F5               	goto	l176
  1351                           
  1352                           ; BSR set to: 0
  1353                           ;usb_device.c: 336: USBStatusStageEnabledFlag1 = 1;
  1354                           
  1355                           ; BSR set to: 0
  1356  0011A6  0E01               	movlw	1
  1357  0011A8  6E4A               	movwf	_USBStatusStageEnabledFlag1,c	;volatile
  1358                           
  1359                           ;usb_device.c: 337: USBStatusStageEnabledFlag2 = 1;
  1360  0011AA  0E01               	movlw	1
  1361  0011AC  6E49               	movwf	_USBStatusStageEnabledFlag2,c	;volatile
  1362                           
  1363                           ;usb_device.c: 339: USBDeferINDataStagePackets = 0;
  1364  0011AE  0E00               	movlw	0
  1365  0011B0  6E48               	movwf	_USBDeferINDataStagePackets,c	;volatile
  1366                           
  1367                           ;usb_device.c: 340: USBDeferOUTDataStagePackets = 0;
  1368  0011B2  0E00               	movlw	0
  1369  0011B4  6E47               	movwf	_USBDeferOUTDataStagePackets,c	;volatile
  1370                           
  1371                           ;usb_device.c: 341: USBBusIsSuspended = 0;
  1372  0011B6  0E00               	movlw	0
  1373  0011B8  6FA5               	movwf	_USBBusIsSuspended& (0+255),b	;volatile
  1374                           
  1375                           ;usb_device.c: 345: for(i = 0; i < (uint8_t)(3+1u); i++)
  1376  0011BA  0E00               	movlw	0
  1377  0011BC  6FBD               	movwf	USBDeviceInit@i& (0+255),b
  1378  0011BE                     l4987:
  1379                           
  1380                           ; BSR set to: 0
  1381  0011BE  0E03               	movlw	3
  1382  0011C0  65BD               	cpfsgt	USBDeviceInit@i& (0+255),b
  1383  0011C2  D001               	goto	l178
  1384  0011C4  D02E               	goto	u4380
  1385  0011C6                     l178:
  1386                           
  1387                           ; BSR set to: 0
  1388                           ;usb_device.c: 346: {
  1389                           ;usb_device.c: 347: pBDTEntryIn[i] = 0u;
  1390                           
  1391                           ; BSR set to: 0
  1392  0011C6  51BD               	movf	USBDeviceInit@i& (0+255),w,b
  1393  0011C8  0D02               	mullw	2
  1394  0011CA  0E72               	movlw	low _pBDTEntryIn
  1395  0011CC  24F3               	addwf	prodl,w,c
  1396  0011CE  6ED9               	movwf	fsr2l,c
  1397  0011D0  0E00               	movlw	high _pBDTEntryIn
  1398  0011D2  20F4               	addwfc	prodh,w,c
  1399  0011D4  6EDA               	movwf	fsr2h,c
  1400  0011D6  0E00               	movlw	0
  1401  0011D8  6EDE               	movwf	postinc2,c
  1402  0011DA  0E00               	movlw	0
  1403  0011DC  6EDD               	movwf	postdec2,c
  1404                           
  1405                           ;usb_device.c: 348: pBDTEntryOut[i] = 0u;
  1406  0011DE  51BD               	movf	USBDeviceInit@i& (0+255),w,b
  1407  0011E0  0D02               	mullw	2
  1408  0011E2  0E7A               	movlw	low _pBDTEntryOut
  1409  0011E4  24F3               	addwf	prodl,w,c
  1410  0011E6  6ED9               	movwf	fsr2l,c
  1411  0011E8  0E00               	movlw	high _pBDTEntryOut
  1412  0011EA  20F4               	addwfc	prodh,w,c
  1413  0011EC  6EDA               	movwf	fsr2h,c
  1414  0011EE  0E00               	movlw	0
  1415  0011F0  6EDE               	movwf	postinc2,c
  1416  0011F2  0E00               	movlw	0
  1417  0011F4  6EDD               	movwf	postdec2,c
  1418                           
  1419                           ;usb_device.c: 349: ep_data_in[i].Val = 0u;
  1420  0011F6  51BD               	movf	USBDeviceInit@i& (0+255),w,b
  1421  0011F8  0D01               	mullw	1
  1422  0011FA  0E90               	movlw	low _ep_data_in
  1423  0011FC  24F3               	addwf	prodl,w,c
  1424  0011FE  6ED9               	movwf	fsr2l,c
  1425  001200  0E00               	movlw	high _ep_data_in
  1426  001202  20F4               	addwfc	prodh,w,c
  1427  001204  6EDA               	movwf	fsr2h,c
  1428  001206  0E00               	movlw	0
  1429  001208  6EDF               	movwf	indf2,c
  1430                           
  1431                           ;usb_device.c: 350: ep_data_out[i].Val = 0u;
  1432  00120A  51BD               	movf	USBDeviceInit@i& (0+255),w,b
  1433  00120C  0D01               	mullw	1
  1434  00120E  0E8C               	movlw	low _ep_data_out
  1435  001210  24F3               	addwf	prodl,w,c
  1436  001212  6ED9               	movwf	fsr2l,c
  1437  001214  0E00               	movlw	high _ep_data_out
  1438  001216  20F4               	addwfc	prodh,w,c
  1439  001218  6EDA               	movwf	fsr2h,c
  1440  00121A  0E00               	movlw	0
  1441  00121C  6EDF               	movwf	indf2,c
  1442                           
  1443                           ; BSR set to: 0
  1444  00121E  2BBD               	incf	USBDeviceInit@i& (0+255),f,b
  1445  001220  D7CE               	goto	l4987
  1446  001222                     u4380:
  1447                           
  1448                           ; BSR set to: 0
  1449                           ;usb_device.c: 351: }
  1450                           ;usb_device.c: 354: pBDTEntryIn[0] = (volatile BDT_ENTRY*)&BDT[2];
  1451                           
  1452                           ; BSR set to: 0
  1453  001222  0E08               	movlw	8
  1454  001224  6F72               	movwf	_pBDTEntryIn& (0+255),b
  1455  001226  0E04               	movlw	4
  1456  001228  6F73               	movwf	(_pBDTEntryIn+1)& (0+255),b
  1457                           
  1458                           ; BSR set to: 0
  1459                           ;usb_device.c: 356: UEP0 = 0x06|0x10;
  1460  00122A  0E16               	movlw	22
  1461  00122C  6E70               	movwf	3952,c	;volatile
  1462                           
  1463                           ; BSR set to: 0
  1464                           ;usb_device.c: 358: BDT[0].ADR = ((uint16_t)(&SetupPkt));
  1465  00122E  0E04               	movlw	4
  1466  001230  0104               	movlb	4	; () banked
  1467  001232  6F03               	movwf	3,b	;volatile
  1468  001234  0E40               	movlw	64
  1469  001236  6F02               	movwf	2,b	;volatile
  1470                           
  1471                           ; BSR set to: 4
  1472                           ;usb_device.c: 359: BDT[0].CNT = 8;
  1473  001238  0E08               	movlw	8
  1474  00123A  6F01               	movwf	1,b	;volatile
  1475                           
  1476                           ; BSR set to: 4
  1477                           ;usb_device.c: 360: BDT[0].STAT.Val = 0x00|0x04;
  1478  00123C  0E04               	movlw	4
  1479  00123E  6F00               	movwf	0,b	;volatile
  1480                           
  1481                           ; BSR set to: 4
  1482                           ;usb_device.c: 361: BDT[0].STAT.Val |= 0x80;
  1483  001240  8F00               	bsf	0,7,b	;volatile
  1484                           
  1485                           ; BSR set to: 4
  1486                           ;usb_device.c: 364: USBActiveConfiguration = 0;
  1487  001242  0E00               	movlw	0
  1488  001244  6E5B               	movwf	_USBActiveConfiguration,c	;volatile
  1489                           
  1490                           ; BSR set to: 4
  1491                           ;usb_device.c: 366: USB1msTickCount = 0;
  1492  001246  0E00               	movlw	0
  1493  001248  6E2F               	movwf	_USB1msTickCount,c	;volatile
  1494  00124A  0E00               	movlw	0
  1495  00124C  6E30               	movwf	_USB1msTickCount+1,c	;volatile
  1496  00124E  0E00               	movlw	0
  1497  001250  6E31               	movwf	_USB1msTickCount+2,c	;volatile
  1498  001252  0E00               	movlw	0
  1499  001254  6E32               	movwf	_USB1msTickCount+3,c	;volatile
  1500                           
  1501                           ; BSR set to: 4
  1502                           ;usb_device.c: 367: USBTicksSinceSuspendEnd = 0;
  1503  001256  0E00               	movlw	0
  1504  001258  0100               	movlb	0	; () banked
  1505  00125A  6FA4               	movwf	_USBTicksSinceSuspendEnd& (0+255),b	;volatile
  1506                           
  1507                           ; BSR set to: 0
  1508                           ;usb_device.c: 370: USBDeviceState = DETACHED_STATE;
  1509  00125C  0E00               	movlw	0
  1510  00125E  6E52               	movwf	_USBDeviceState,c	;volatile
  1511                           
  1512                           ; BSR set to: 0
  1513  001260  0012               	return		;funcret
  1514  001262                     __end_of_USBDeviceInit:
  1515                           	opt stack 0
  1516                           tblptru	equ	0xFF8
  1517                           prodh	equ	0xFF4
  1518                           prodl	equ	0xFF3
  1519                           intcon	equ	0xFF2
  1520                           postinc0	equ	0xFEE
  1521                           wreg	equ	0xFE8
  1522                           indf2	equ	0xFDF
  1523                           postinc2	equ	0xFDE
  1524                           postdec2	equ	0xFDD
  1525                           fsr2h	equ	0xFDA
  1526                           fsr2l	equ	0xFD9
  1527                           
  1528 ;; *************** function _memset *****************
  1529 ;; Defined at:
  1530 ;;		line 8 in file "C:\Program Files\Microchip\xc8\v1.45\sources\common\memset.c"
  1531 ;; Parameters:    Size  Location     Type
  1532 ;;  p1              2    0[BANK0 ] PTR void 
  1533 ;;		 -> USBAlternateInterface(4), BDT(64), UEP1(1), 
  1534 ;;  c               2    2[BANK0 ] int 
  1535 ;;  n               2    4[BANK0 ] unsigned int 
  1536 ;; Auto vars:     Size  Location     Type
  1537 ;;  p               2    6[BANK0 ] PTR unsigned char 
  1538 ;;		 -> USBAlternateInterface(4), BDT(64), UEP1(1), 
  1539 ;; Return value:  Size  Location     Type
  1540 ;;                  2    0[BANK0 ] PTR void 
  1541 ;; Registers used:
  1542 ;;		wreg, fsr2l, fsr2h, status,2, status,0
  1543 ;; Tracked objects:
  1544 ;;		On entry : 0/0
  1545 ;;		On exit  : 0/0
  1546 ;;		Unchanged: 0/0
  1547 ;; Data sizes:     COMRAM   BANK0   BANK1   BANK2   BANK3   BANK4   BANK5   BANK6   BANK7
  1548 ;;      Params:         0       6       0       0       0       0       0       0       0
  1549 ;;      Locals:         0       2       0       0       0       0       0       0       0
  1550 ;;      Temps:          0       0       0       0       0       0       0       0       0
  1551 ;;      Totals:         0       8       0       0       0       0       0       0       0
  1552 ;;Total ram usage:        8 bytes
  1553 ;; Hardware stack levels used:    1
  1554 ;; Hardware stack levels required when called:   10
  1555 ;; This function calls:
  1556 ;;		Nothing
  1557 ;; This function is called by:
  1558 ;;		_USBDeviceInit
  1559 ;; This function uses a non-reentrant model
  1560 ;;
  1561                           
  1562                           	psect	text5
  1563  002734                     __ptext5:
  1564                           	opt stack 0
  1565  002734                     _memset:
  1566                           	opt stack 18
  1567                           
  1568                           ; BSR set to: 0
  1569                           ;incstack = 0
  1570  002734  C0B5  F0BB         	movff	memset@p1,memset@p
  1571  002738  C0B6  F0BC         	movff	memset@p1+1,memset@p+1
  1572  00273C  D009               	goto	l1299
  1573  00273E                     l4835:
  1574  00273E  C0BB  FFD9         	movff	memset@p,fsr2l
  1575  002742  C0BC  FFDA         	movff	memset@p+1,fsr2h
  1576  002746  C0B7  FFDF         	movff	memset@c,indf2
  1577  00274A  0100               	movlb	0	; () banked
  1578  00274C  4BBB               	infsnz	memset@p& (0+255),f,b
  1579  00274E  2BBC               	incf	(memset@p+1)& (0+255),f,b
  1580  002750                     l1299:
  1581                           
  1582                           ; BSR set to: 0
  1583  002750  0100               	movlb	0	; () banked
  1584  002752  07B9               	decf	memset@n& (0+255),f,b
  1585  002754  A0D8               	btfss	status,0,c
  1586  002756  07BA               	decf	(memset@n+1)& (0+255),f,b
  1587  002758  29B9               	incf	memset@n& (0+255),w,b
  1588  00275A  E1F1               	bnz	l4835
  1589  00275C  29BA               	incf	(memset@n+1)& (0+255),w,b
  1590  00275E  B4D8               	btfsc	status,2,c
  1591  002760  0012               	return	
  1592  002762  D7ED               	goto	l1300
  1593  002764                     __end_of_memset:
  1594                           	opt stack 0
  1595                           tblptru	equ	0xFF8
  1596                           prodh	equ	0xFF4
  1597                           prodl	equ	0xFF3
  1598                           intcon	equ	0xFF2
  1599                           postinc0	equ	0xFEE
  1600                           wreg	equ	0xFE8
  1601                           indf2	equ	0xFDF
  1602                           postinc2	equ	0xFDE
  1603                           postdec2	equ	0xFDD
  1604                           fsr2h	equ	0xFDA
  1605                           fsr2l	equ	0xFD9
  1606                           status	equ	0xFD8
  1607                           
  1608 ;; *************** function _USBDeviceAttach *****************
  1609 ;; Defined at:
  1610 ;;		line 1352 in file "usb/src/usb_device.c"
  1611 ;; Parameters:    Size  Location     Type
  1612 ;;		None
  1613 ;; Auto vars:     Size  Location     Type
  1614 ;;		None
  1615 ;; Return value:  Size  Location     Type
  1616 ;;                  1    wreg      void 
  1617 ;; Registers used:
  1618 ;;		wreg, status,2
  1619 ;; Tracked objects:
  1620 ;;		On entry : 0/0
  1621 ;;		On exit  : 0/0
  1622 ;;		Unchanged: 0/0
  1623 ;; Data sizes:     COMRAM   BANK0   BANK1   BANK2   BANK3   BANK4   BANK5   BANK6   BANK7
  1624 ;;      Params:         0       0       0       0       0       0       0       0       0
  1625 ;;      Locals:         0       0       0       0       0       0       0       0       0
  1626 ;;      Temps:          0       0       0       0       0       0       0       0       0
  1627 ;;      Totals:         0       0       0       0       0       0       0       0       0
  1628 ;;Total ram usage:        0 bytes
  1629 ;; Hardware stack levels used:    1
  1630 ;; Hardware stack levels required when called:   10
  1631 ;; This function calls:
  1632 ;;		Nothing
  1633 ;; This function is called by:
  1634 ;;		_USBuartConfig
  1635 ;; This function uses a non-reentrant model
  1636 ;;
  1637                           
  1638                           	psect	text6
  1639  002764                     __ptext6:
  1640                           	opt stack 0
  1641  002764                     _USBDeviceAttach:
  1642                           	opt stack 19
  1643                           
  1644                           ;usb_device.c: 1356: {
  1645                           ;usb_device.c: 1357: if(1 == 1)
  1646                           
  1647                           ; BSR set to: 0
  1648                           ;incstack = 0
  1649  002764  5052               	movf	_USBDeviceState,w,c	;volatile
  1650  002766  A4D8               	btfss	status,2,c
  1651  002768  0012               	return	
  1652                           
  1653                           ;usb_device.c: 1358: {
  1654                           ;usb_device.c: 1360: UCON = 0;
  1655  00276A  0E00               	movlw	0
  1656  00276C  6E6D               	movwf	3949,c	;volatile
  1657                           
  1658                           ;usb_device.c: 1363: UIE = 0;
  1659  00276E  0E00               	movlw	0
  1660  002770  6E69               	movwf	3945,c	;volatile
  1661                           
  1662                           ;usb_device.c: 1367: { UCFG = 0x10 | 0x00 | 0x04 | 0x02; UEIE = 0x9F; UIE = 0x39 | 0x40 
      +                          | 0x02; };
  1663  002772  0E16               	movlw	22
  1664  002774  6E6F               	movwf	3951,c	;volatile
  1665  002776  0E9F               	movlw	159
  1666  002778  6E6B               	movwf	3947,c	;volatile
  1667  00277A  0E7B               	movlw	123
  1668  00277C  6E69               	movwf	3945,c	;volatile
  1669                           
  1670                           ;usb_device.c: 1369: {RCONbits.IPEN = 1;IPR2bits.USBIP = 1;PIE2bits.USBIE = 1;INTCONbits
      +                          .GIEH = 1;};
  1671  00277E  8ED0               	bsf	4048,7,c	;volatile
  1672  002780  8AA2               	bsf	4002,5,c	;volatile
  1673  002782  8AA0               	bsf	4000,5,c	;volatile
  1674  002784  8EF2               	bsf	intcon,7,c	;volatile
  1675                           
  1676                           ;usb_device.c: 1372: while(!UCONbits.USBEN){UCONbits.USBEN = 1;}
  1677  002786  D001               	goto	l235
  1678  002788                     l236:
  1679  002788  866D               	bsf	3949,3,c	;volatile
  1680  00278A                     l235:
  1681  00278A  A66D               	btfss	3949,3,c	;volatile
  1682  00278C  D7FD               	goto	l236
  1683                           
  1684                           ;usb_device.c: 1375: USBDeviceState = ATTACHED_STATE;
  1685  00278E  0E01               	movlw	1
  1686  002790  6E52               	movwf	_USBDeviceState,c	;volatile
  1687  002792  0012               	return	
  1688  002794                     __end_of_USBDeviceAttach:
  1689                           	opt stack 0
  1690                           tblptru	equ	0xFF8
  1691                           prodh	equ	0xFF4
  1692                           prodl	equ	0xFF3
  1693                           intcon	equ	0xFF2
  1694                           postinc0	equ	0xFEE
  1695                           wreg	equ	0xFE8
  1696                           indf2	equ	0xFDF
  1697                           postinc2	equ	0xFDE
  1698                           postdec2	equ	0xFDD
  1699                           fsr2h	equ	0xFDA
  1700                           fsr2l	equ	0xFD9
  1701                           status	equ	0xFD8
  1702                           
  1703 ;; *************** function _IniciarMasterMEF *****************
  1704 ;; Defined at:
  1705 ;;		line 37 in file "MasterMeF.c"
  1706 ;; Parameters:    Size  Location     Type
  1707 ;;		None
  1708 ;; Auto vars:     Size  Location     Type
  1709 ;;		None
  1710 ;; Return value:  Size  Location     Type
  1711 ;;                  1    wreg      void 
  1712 ;; Registers used:
  1713 ;;		wreg, status,2, cstack
  1714 ;; Tracked objects:
  1715 ;;		On entry : 0/0
  1716 ;;		On exit  : 0/0
  1717 ;;		Unchanged: 0/0
  1718 ;; Data sizes:     COMRAM   BANK0   BANK1   BANK2   BANK3   BANK4   BANK5   BANK6   BANK7
  1719 ;;      Params:         0       0       0       0       0       0       0       0       0
  1720 ;;      Locals:         0       0       0       0       0       0       0       0       0
  1721 ;;      Temps:          0       0       0       0       0       0       0       0       0
  1722 ;;      Totals:         0       0       0       0       0       0       0       0       0
  1723 ;;Total ram usage:        0 bytes
  1724 ;; Hardware stack levels used:    1
  1725 ;; Hardware stack levels required when called:   11
  1726 ;; This function calls:
  1727 ;;		_tickRead
  1728 ;; This function is called by:
  1729 ;;		_main
  1730 ;; This function uses a non-reentrant model
  1731 ;;
  1732                           
  1733                           	psect	text7
  1734  002836                     __ptext7:
  1735                           	opt stack 0
  1736  002836                     _IniciarMasterMEF:
  1737                           	opt stack 19
  1738                           
  1739                           ;MasterMeF.c: 38: estadoActual = INICIAL;
  1740                           
  1741                           ;incstack = 0
  1742  002836  0E00               	movlw	0
  1743  002838  0100               	movlb	0	; () banked
  1744  00283A  6FA1               	movwf	_estadoActual& (0+255),b
  1745                           
  1746                           ; BSR set to: 0
  1747                           ;MasterMeF.c: 39: tinicio=tickRead();
  1748  00283C  EC56  F014         	call	_tickRead	;wreg free
  1749  002840  C0B5  F09A         	movff	?_tickRead,_tinicio
  1750  002844  C0B6  F09B         	movff	?_tickRead+1,_tinicio+1
  1751                           
  1752                           ;MasterMeF.c: 40: tloop=tickRead();
  1753  002848  EC56  F014         	call	_tickRead	;wreg free
  1754  00284C  C0B5  F096         	movff	?_tickRead,_tloop
  1755  002850  C0B6  F097         	movff	?_tickRead+1,_tloop+1
  1756  002854  0012               	return		;funcret
  1757  002856                     __end_of_IniciarMasterMEF:
  1758                           	opt stack 0
  1759                           tblptru	equ	0xFF8
  1760                           prodh	equ	0xFF4
  1761                           prodl	equ	0xFF3
  1762                           intcon	equ	0xFF2
  1763                           postinc0	equ	0xFEE
  1764                           wreg	equ	0xFE8
  1765                           indf2	equ	0xFDF
  1766                           postinc2	equ	0xFDE
  1767                           postdec2	equ	0xFDD
  1768                           fsr2h	equ	0xFDA
  1769                           fsr2l	equ	0xFD9
  1770                           status	equ	0xFD8
  1771                           
  1772 ;; *************** function _ActualizarMasterMEF *****************
  1773 ;; Defined at:
  1774 ;;		line 43 in file "MasterMeF.c"
  1775 ;; Parameters:    Size  Location     Type
  1776 ;;		None
  1777 ;; Auto vars:     Size  Location     Type
  1778 ;;  pkg             6   20[BANK0 ] struct paquete
  1779 ;; Return value:  Size  Location     Type
  1780 ;;                  1    wreg      void 
  1781 ;; Registers used:
  1782 ;;		wreg, fsr1l, fsr1h, fsr2l, fsr2h, status,2, status,0, prodl, prodh, cstack
  1783 ;; Tracked objects:
  1784 ;;		On entry : 0/0
  1785 ;;		On exit  : 0/0
  1786 ;;		Unchanged: 0/0
  1787 ;; Data sizes:     COMRAM   BANK0   BANK1   BANK2   BANK3   BANK4   BANK5   BANK6   BANK7
  1788 ;;      Params:         0       0       0       0       0       0       0       0       0
  1789 ;;      Locals:         0       6       0       0       0       0       0       0       0
  1790 ;;      Temps:          0       2       0       0       0       0       0       0       0
  1791 ;;      Totals:         0       8       0       0       0       0       0       0       0
  1792 ;;Total ram usage:        8 bytes
  1793 ;; Hardware stack levels used:    1
  1794 ;; Hardware stack levels required when called:   13
  1795 ;; This function calls:
  1796 ;;		_RxMode
  1797 ;;		_TxMode
  1798 ;;		_USBuartReadByte
  1799 ;;		_USBuartWriteByte
  1800 ;;		_tickRead
  1801 ;;		_uartReadByte
  1802 ;;		_uartWriteByte
  1803 ;; This function is called by:
  1804 ;;		_main
  1805 ;; This function uses a non-reentrant model
  1806 ;;
  1807                           
  1808                           	psect	text8
  1809  0008D6                     __ptext8:
  1810                           	opt stack 0
  1811  0008D6                     _ActualizarMasterMEF:
  1812                           	opt stack 17
  1813                           
  1814                           ;MasterMeF.c: 44: union paquete pkg;
  1815                           ;MasterMeF.c: 45: static uint8_t target, data, lux[2], i, aux, temp, datousb;
  1816                           ;MasterMeF.c: 46: switch (estadoActual) {
  1817                           
  1818                           ;incstack = 0
  1819  0008D6  D2D4               	goto	l791
  1820  0008D8                     
  1821                           ;MasterMeF.c: 48: if (USBDeviceState < CONFIGURED_STATE && (tickRead() - tinicio >= 500)
      +                          ) {
  1822  0008D8  0E20               	movlw	32
  1823  0008DA  6052               	cpfslt	_USBDeviceState,c	;volatile
  1824  0008DC  D02B               	goto	l793
  1825  0008DE  C09A  F0C7         	movff	_tinicio,??_ActualizarMasterMEF
  1826  0008E2  C09B  F0C8         	movff	_tinicio+1,??_ActualizarMasterMEF+1
  1827  0008E6  0100               	movlb	0	; () banked
  1828  0008E8  1FC7               	comf	??_ActualizarMasterMEF& (0+255),f,b
  1829  0008EA  1FC8               	comf	(??_ActualizarMasterMEF+1)& (0+255),f,b
  1830  0008EC  4BC7               	infsnz	??_ActualizarMasterMEF& (0+255),f,b
  1831  0008EE  2BC8               	incf	(??_ActualizarMasterMEF+1)& (0+255),f,b
  1832  0008F0  EC56  F014         	call	_tickRead	;wreg free
  1833  0008F4  0100               	movlb	0	; () banked
  1834  0008F6  51C7               	movf	??_ActualizarMasterMEF& (0+255),w,b
  1835  0008F8  27B5               	addwf	?_tickRead& (0+255),f,b
  1836  0008FA  51C8               	movf	(??_ActualizarMasterMEF+1)& (0+255),w,b
  1837  0008FC  23B6               	addwfc	(?_tickRead+1)& (0+255),f,b
  1838  0008FE  0EF4               	movlw	244
  1839  000900  5DB5               	subwf	?_tickRead& (0+255),w,b
  1840  000902  0E01               	movlw	1
  1841  000904  59B6               	subwfb	(?_tickRead+1)& (0+255),w,b
  1842  000906  A0D8               	btfss	status,0,c
  1843  000908  D015               	goto	l793
  1844                           
  1845                           ; BSR set to: 0
  1846                           ;MasterMeF.c: 49: PORTAbits.RA2 = !PORTAbits.RA2;
  1847  00090A  B480               	btfsc	3968,2,c	;volatile
  1848  00090C  D003               	goto	u4520
  1849  00090E  6BC7               	clrf	??_ActualizarMasterMEF& (0+255),b
  1850  000910  2BC7               	incf	??_ActualizarMasterMEF& (0+255),f,b
  1851  000912  D002               	goto	u4538
  1852  000914                     u4520:
  1853  000914  0100               	movlb	0	; () banked
  1854  000916  6BC7               	clrf	??_ActualizarMasterMEF& (0+255),b
  1855  000918                     u4538:
  1856  000918  47C7               	rlncf	??_ActualizarMasterMEF& (0+255),f,b
  1857  00091A  47C7               	rlncf	??_ActualizarMasterMEF& (0+255),f,b
  1858  00091C  5080               	movf	3968,w,c	;volatile
  1859  00091E  19C7               	xorwf	??_ActualizarMasterMEF& (0+255),w,b
  1860  000920  0BFB               	andlw	-5
  1861  000922  19C7               	xorwf	??_ActualizarMasterMEF& (0+255),w,b
  1862  000924  6E80               	movwf	3968,c	;volatile
  1863                           
  1864                           ; BSR set to: 0
  1865                           ;MasterMeF.c: 50: tinicio = tickRead();
  1866  000926  EC56  F014         	call	_tickRead	;wreg free
  1867  00092A  C0B5  F09A         	movff	?_tickRead,_tinicio
  1868  00092E  C0B6  F09B         	movff	?_tickRead+1,_tinicio+1
  1869                           
  1870                           ;MasterMeF.c: 51: } else {
  1871  000932  0012               	return	
  1872  000934                     l793:
  1873                           
  1874                           ;MasterMeF.c: 52: tloop = tickRead();
  1875  000934  EC56  F014         	call	_tickRead	;wreg free
  1876  000938  C0B5  F096         	movff	?_tickRead,_tloop
  1877  00093C  C0B6  F097         	movff	?_tickRead+1,_tloop+1
  1878                           
  1879                           ;MasterMeF.c: 53: estadoActual = USB_RX;
  1880  000940  0E01               	movlw	1
  1881  000942  0100               	movlb	0	; () banked
  1882  000944  6FA1               	movwf	_estadoActual& (0+255),b
  1883                           
  1884                           ; BSR set to: 0
  1885                           ;MasterMeF.c: 54: }
  1886                           ;MasterMeF.c: 55: break;
  1887  000946  0012               	return	
  1888  000948                     
  1889                           ; BSR set to: 0
  1890                           ;MasterMeF.c: 57: TxMode();
  1891                           
  1892                           ; BSR set to: 0
  1893  000948  EC77  F014         	call	_TxMode	;wreg free
  1894                           
  1895                           ;MasterMeF.c: 58: uartWriteByte(target);
  1896  00094C  0100               	movlb	0	; () banked
  1897  00094E  51A0               	movf	ActualizarMasterMEF@target& (0+255),w,b
  1898  000950  EC6B  F014         	call	_uartWriteByte
  1899  000954  0EB3               	movlw	low ActualizarMasterMEF@aux
  1900  000956  0100               	movlb	0	; () banked
  1901  000958  6FB5               	movwf	uartReadByte@receivedByte& (0+255),b
  1902  00095A  0E00               	movlw	high ActualizarMasterMEF@aux
  1903  00095C  6FB6               	movwf	(uartReadByte@receivedByte+1)& (0+255),b
  1904  00095E  EC4A  F014         	call	_uartReadByte	;wreg free
  1905  000962  0100               	movlb	0	; () banked
  1906  000964  A0D8               	btfss	status,0,c
  1907  000966  D7F6               	goto	l798
  1908                           
  1909                           ; BSR set to: 0
  1910                           ;MasterMeF.c: 60: if (aux == target) {
  1911                           
  1912                           ; BSR set to: 0
  1913  000968  51A0               	movf	ActualizarMasterMEF@target& (0+255),w,b
  1914  00096A  19B3               	xorwf	ActualizarMasterMEF@aux& (0+255),w,b
  1915  00096C  A4D8               	btfss	status,2,c
  1916  00096E  D010               	goto	l800
  1917                           
  1918                           ; BSR set to: 0
  1919                           ;MasterMeF.c: 61: aux = 0;
  1920  000970  0E00               	movlw	0
  1921  000972  6FB3               	movwf	ActualizarMasterMEF@aux& (0+255),b
  1922                           
  1923                           ; BSR set to: 0
  1924                           ;MasterMeF.c: 62: RxMode();
  1925  000974  EC7A  F014         	call	_RxMode	;wreg free
  1926                           
  1927                           ;MasterMeF.c: 63: estadoActual = UART_RX;
  1928  000978  0E03               	movlw	3
  1929  00097A  0100               	movlb	0	; () banked
  1930  00097C  6FA1               	movwf	_estadoActual& (0+255),b
  1931                           
  1932                           ; BSR set to: 0
  1933                           ;MasterMeF.c: 64: i = 0;
  1934  00097E  0E00               	movlw	0
  1935  000980  6F9F               	movwf	ActualizarMasterMEF@i& (0+255),b
  1936                           
  1937                           ; BSR set to: 0
  1938                           ;MasterMeF.c: 65: timeout = tickRead();
  1939  000982  EC56  F014         	call	_tickRead	;wreg free
  1940  000986  C0B5  F098         	movff	?_tickRead,_timeout
  1941  00098A  C0B6  F099         	movff	?_tickRead+1,_timeout+1
  1942                           
  1943                           ;MasterMeF.c: 66: } else {
  1944  00098E  0012               	return	
  1945  000990                     l800:
  1946                           
  1947                           ;MasterMeF.c: 67: estadoActual = UART_TX;
  1948  000990  0E04               	movlw	4
  1949  000992  0100               	movlb	0	; () banked
  1950  000994  6FA1               	movwf	_estadoActual& (0+255),b
  1951                           
  1952                           ; BSR set to: 0
  1953                           ;MasterMeF.c: 68: }
  1954                           ;MasterMeF.c: 69: break;
  1955  000996  0012               	return	
  1956  000998                     
  1957                           ; BSR set to: 0
  1958                           ;MasterMeF.c: 73: if (uartReadByte(&data) && i < 2) {
  1959                           
  1960                           ; BSR set to: 0
  1961  000998  0EB4               	movlw	low ActualizarMasterMEF@data
  1962  00099A  6FB5               	movwf	uartReadByte@receivedByte& (0+255),b
  1963  00099C  0E00               	movlw	high ActualizarMasterMEF@data
  1964  00099E  6FB6               	movwf	(uartReadByte@receivedByte+1)& (0+255),b
  1965  0009A0  EC4A  F014         	call	_uartReadByte	;wreg free
  1966  0009A4  0100               	movlb	0	; () banked
  1967  0009A6  A0D8               	btfss	status,0,c
  1968  0009A8  D016               	goto	l805
  1969                           
  1970                           ; BSR set to: 0
  1971  0009AA  0E02               	movlw	2
  1972  0009AC  619F               	cpfslt	ActualizarMasterMEF@i& (0+255),b
  1973  0009AE  D013               	goto	l805
  1974                           
  1975                           ; BSR set to: 0
  1976                           ;MasterMeF.c: 74: lux[i] = data;
  1977  0009B0  519F               	movf	ActualizarMasterMEF@i& (0+255),w,b
  1978  0009B2  0D01               	mullw	1
  1979  0009B4  0E94               	movlw	low ActualizarMasterMEF@lux
  1980  0009B6  24F3               	addwf	prodl,w,c
  1981  0009B8  6ED9               	movwf	fsr2l,c
  1982  0009BA  0E00               	movlw	high ActualizarMasterMEF@lux
  1983  0009BC  20F4               	addwfc	prodh,w,c
  1984  0009BE  6EDA               	movwf	fsr2h,c
  1985  0009C0  C0B4  FFDF         	movff	ActualizarMasterMEF@data,indf2
  1986                           
  1987                           ; BSR set to: 0
  1988                           ;MasterMeF.c: 75: timeout = tickRead();
  1989  0009C4  EC56  F014         	call	_tickRead	;wreg free
  1990  0009C8  C0B5  F098         	movff	?_tickRead,_timeout
  1991  0009CC  C0B6  F099         	movff	?_tickRead+1,_timeout+1
  1992                           
  1993                           ;MasterMeF.c: 76: i++;
  1994  0009D0  0100               	movlb	0	; () banked
  1995  0009D2  2B9F               	incf	ActualizarMasterMEF@i& (0+255),f,b
  1996                           
  1997                           ;MasterMeF.c: 77: } else {
  1998  0009D4  0012               	return	
  1999  0009D6                     l805:
  2000                           
  2001                           ; BSR set to: 0
  2002                           ;MasterMeF.c: 78: if (i >= 2) {
  2003                           
  2004                           ; BSR set to: 0
  2005  0009D6  0E01               	movlw	1
  2006  0009D8  659F               	cpfsgt	ActualizarMasterMEF@i& (0+255),b
  2007  0009DA  D00C               	goto	l807
  2008                           
  2009                           ; BSR set to: 0
  2010                           ;MasterMeF.c: 79: if(lux[0]&0x40){
  2011  0009DC  AD94               	btfss	ActualizarMasterMEF@lux& (0+255),6,b
  2012  0009DE  D002               	goto	l808
  2013                           
  2014                           ; BSR set to: 0
  2015                           ;MasterMeF.c: 80: lux[0]&=0xBF;
  2016  0009E0  9D94               	bcf	ActualizarMasterMEF@lux& (0+255),6,b
  2017                           
  2018                           ;MasterMeF.c: 81: lux[1]|=0x80;
  2019  0009E2  8F95               	bsf	(ActualizarMasterMEF@lux+1)& (0+255),7,b
  2020  0009E4                     l808:
  2021                           
  2022                           ; BSR set to: 0
  2023                           ;MasterMeF.c: 82: }
  2024                           ;MasterMeF.c: 83: estadoActual = UART_TX;
  2025                           
  2026                           ; BSR set to: 0
  2027  0009E4  0E04               	movlw	4
  2028  0009E6  6FA1               	movwf	_estadoActual& (0+255),b
  2029                           
  2030                           ; BSR set to: 0
  2031                           ;MasterMeF.c: 84: pkg.estructura.luz[0]=lux[0];
  2032  0009E8  C094  F0C9         	movff	ActualizarMasterMEF@lux,ActualizarMasterMEF@pkg
  2033                           
  2034                           ; BSR set to: 0
  2035                           ;MasterMeF.c: 85: pkg.estructura.luz[1]=lux[1];
  2036  0009EC  C095  F0CA         	movff	ActualizarMasterMEF@lux+1,ActualizarMasterMEF@pkg+1
  2037                           
  2038                           ; BSR set to: 0
  2039                           ;MasterMeF.c: 86: target=0x95;
  2040  0009F0  0E95               	movlw	149
  2041  0009F2  6FA0               	movwf	ActualizarMasterMEF@target& (0+255),b
  2042  0009F4                     l807:
  2043                           
  2044                           ; BSR set to: 0
  2045                           ;MasterMeF.c: 87: }
  2046                           ;MasterMeF.c: 88: if (tickRead() - timeout > 500) {
  2047                           
  2048                           ; BSR set to: 0
  2049  0009F4  C098  F0C7         	movff	_timeout,??_ActualizarMasterMEF
  2050  0009F8  C099  F0C8         	movff	_timeout+1,??_ActualizarMasterMEF+1
  2051  0009FC  1FC7               	comf	??_ActualizarMasterMEF& (0+255),f,b
  2052  0009FE  1FC8               	comf	(??_ActualizarMasterMEF+1)& (0+255),f,b
  2053  000A00  4BC7               	infsnz	??_ActualizarMasterMEF& (0+255),f,b
  2054  000A02  2BC8               	incf	(??_ActualizarMasterMEF+1)& (0+255),f,b
  2055  000A04  EC56  F014         	call	_tickRead	;wreg free
  2056  000A08  0100               	movlb	0	; () banked
  2057  000A0A  51C7               	movf	??_ActualizarMasterMEF& (0+255),w,b
  2058  000A0C  27B5               	addwf	?_tickRead& (0+255),f,b
  2059  000A0E  51C8               	movf	(??_ActualizarMasterMEF+1)& (0+255),w,b
  2060  000A10  23B6               	addwfc	(?_tickRead+1)& (0+255),f,b
  2061  000A12  0EF5               	movlw	245
  2062  000A14  5DB5               	subwf	?_tickRead& (0+255),w,b
  2063  000A16  0E01               	movlw	1
  2064  000A18  59B6               	subwfb	(?_tickRead+1)& (0+255),w,b
  2065  000A1A  A0D8               	btfss	status,0,c
  2066  000A1C  0012               	return	
  2067                           
  2068                           ; BSR set to: 0
  2069                           ;MasterMeF.c: 89: estadoActual = INICIAL;
  2070  000A1E  0E00               	movlw	0
  2071  000A20  6FA1               	movwf	_estadoActual& (0+255),b
  2072                           
  2073                           ; BSR set to: 0
  2074                           ;MasterMeF.c: 90: }
  2075                           ;MasterMeF.c: 91: }
  2076                           ;MasterMeF.c: 92: break;
  2077                           
  2078                           ; BSR set to: 0
  2079  000A22  0012               	return	
  2080  000A24                     
  2081                           ; BSR set to: 0
  2082                           ;MasterMeF.c: 94: if (uartReadByte(&data)) {
  2083                           
  2084                           ; BSR set to: 0
  2085  000A24  0EB4               	movlw	low ActualizarMasterMEF@data
  2086  000A26  6FB5               	movwf	uartReadByte@receivedByte& (0+255),b
  2087  000A28  0E00               	movlw	high ActualizarMasterMEF@data
  2088  000A2A  6FB6               	movwf	(uartReadByte@receivedByte+1)& (0+255),b
  2089  000A2C  EC4A  F014         	call	_uartReadByte	;wreg free
  2090  000A30  0100               	movlb	0	; () banked
  2091  000A32  A0D8               	btfss	status,0,c
  2092  000A34  D010               	goto	l812
  2093                           
  2094                           ; BSR set to: 0
  2095                           ;MasterMeF.c: 95: temp = data;
  2096  000A36  C0B4  F09E         	movff	ActualizarMasterMEF@data,ActualizarMasterMEF@temp
  2097                           
  2098                           ; BSR set to: 0
  2099                           ;MasterMeF.c: 96: timeout = tickRead();
  2100  000A3A  EC56  F014         	call	_tickRead	;wreg free
  2101  000A3E  C0B5  F098         	movff	?_tickRead,_timeout
  2102  000A42  C0B6  F099         	movff	?_tickRead+1,_timeout+1
  2103                           
  2104                           ;MasterMeF.c: 97: pkg.estructura.relstates[0]=temp;
  2105  000A46  C09E  F0CC         	movff	ActualizarMasterMEF@temp,ActualizarMasterMEF@pkg+3
  2106                           
  2107                           ;MasterMeF.c: 98: estadoActual = UART_TX;
  2108  000A4A  0E04               	movlw	4
  2109  000A4C  0100               	movlb	0	; () banked
  2110  000A4E  6FA1               	movwf	_estadoActual& (0+255),b
  2111                           
  2112                           ; BSR set to: 0
  2113                           ;MasterMeF.c: 99: target = 0xC7;
  2114  000A50  0EC7               	movlw	199
  2115  000A52  6FA0               	movwf	ActualizarMasterMEF@target& (0+255),b
  2116                           
  2117                           ;MasterMeF.c: 100: } else if (tickRead() - timeout > 500) {
  2118  000A54  0012               	return	
  2119  000A56                     l812:
  2120                           
  2121                           ; BSR set to: 0
  2122                           
  2123                           ; BSR set to: 0
  2124  000A56  C098  F0C7         	movff	_timeout,??_ActualizarMasterMEF
  2125  000A5A  C099  F0C8         	movff	_timeout+1,??_ActualizarMasterMEF+1
  2126  000A5E  1FC7               	comf	??_ActualizarMasterMEF& (0+255),f,b
  2127  000A60  1FC8               	comf	(??_ActualizarMasterMEF+1)& (0+255),f,b
  2128  000A62  4BC7               	infsnz	??_ActualizarMasterMEF& (0+255),f,b
  2129  000A64  2BC8               	incf	(??_ActualizarMasterMEF+1)& (0+255),f,b
  2130  000A66  EC56  F014         	call	_tickRead	;wreg free
  2131  000A6A  0100               	movlb	0	; () banked
  2132  000A6C  51C7               	movf	??_ActualizarMasterMEF& (0+255),w,b
  2133  000A6E  27B5               	addwf	?_tickRead& (0+255),f,b
  2134  000A70  51C8               	movf	(??_ActualizarMasterMEF+1)& (0+255),w,b
  2135  000A72  23B6               	addwfc	(?_tickRead+1)& (0+255),f,b
  2136  000A74  0EF5               	movlw	245
  2137  000A76  5DB5               	subwf	?_tickRead& (0+255),w,b
  2138  000A78  0E01               	movlw	1
  2139  000A7A  59B6               	subwfb	(?_tickRead+1)& (0+255),w,b
  2140  000A7C  A0D8               	btfss	status,0,c
  2141  000A7E  0012               	return	
  2142                           
  2143                           ; BSR set to: 0
  2144                           ;MasterMeF.c: 101: estadoActual = INICIAL;
  2145  000A80  0E00               	movlw	0
  2146  000A82  6FA1               	movwf	_estadoActual& (0+255),b
  2147                           
  2148                           ; BSR set to: 0
  2149                           ;MasterMeF.c: 102: }
  2150                           ;MasterMeF.c: 103: break;
  2151                           
  2152                           ; BSR set to: 0
  2153  000A84  0012               	return	
  2154  000A86                     
  2155                           ; BSR set to: 0
  2156                           ;MasterMeF.c: 105: if (uartReadByte(&data)) {
  2157                           
  2158                           ; BSR set to: 0
  2159  000A86  0EB4               	movlw	low ActualizarMasterMEF@data
  2160  000A88  6FB5               	movwf	uartReadByte@receivedByte& (0+255),b
  2161  000A8A  0E00               	movlw	high ActualizarMasterMEF@data
  2162  000A8C  6FB6               	movwf	(uartReadByte@receivedByte+1)& (0+255),b
  2163  000A8E  EC4A  F014         	call	_uartReadByte	;wreg free
  2164  000A92  0100               	movlb	0	; () banked
  2165  000A94  A0D8               	btfss	status,0,c
  2166  000A96  D00E               	goto	l816
  2167                           
  2168                           ; BSR set to: 0
  2169                           ;MasterMeF.c: 106: temp = data;
  2170  000A98  C0B4  F09E         	movff	ActualizarMasterMEF@data,ActualizarMasterMEF@temp
  2171                           
  2172                           ; BSR set to: 0
  2173                           ;MasterMeF.c: 107: timeout = tickRead();
  2174  000A9C  EC56  F014         	call	_tickRead	;wreg free
  2175  000AA0  C0B5  F098         	movff	?_tickRead,_timeout
  2176  000AA4  C0B6  F099         	movff	?_tickRead+1,_timeout+1
  2177                           
  2178                           ;MasterMeF.c: 108: pkg.estructura.relstates[1]=temp;
  2179  000AA8  C09E  F0CD         	movff	ActualizarMasterMEF@temp,ActualizarMasterMEF@pkg+4
  2180                           
  2181                           ;MasterMeF.c: 109: estadoActual = INICIAL;
  2182  000AAC  0E00               	movlw	0
  2183  000AAE  0100               	movlb	0	; () banked
  2184  000AB0  6FA1               	movwf	_estadoActual& (0+255),b
  2185                           
  2186                           ;MasterMeF.c: 110: } else if (tickRead() - timeout > 500) {
  2187  000AB2  0012               	return	
  2188  000AB4                     l816:
  2189                           
  2190                           ; BSR set to: 0
  2191                           
  2192                           ; BSR set to: 0
  2193  000AB4  C098  F0C7         	movff	_timeout,??_ActualizarMasterMEF
  2194  000AB8  C099  F0C8         	movff	_timeout+1,??_ActualizarMasterMEF+1
  2195  000ABC  1FC7               	comf	??_ActualizarMasterMEF& (0+255),f,b
  2196  000ABE  1FC8               	comf	(??_ActualizarMasterMEF+1)& (0+255),f,b
  2197  000AC0  4BC7               	infsnz	??_ActualizarMasterMEF& (0+255),f,b
  2198  000AC2  2BC8               	incf	(??_ActualizarMasterMEF+1)& (0+255),f,b
  2199  000AC4  EC56  F014         	call	_tickRead	;wreg free
  2200  000AC8  0100               	movlb	0	; () banked
  2201  000ACA  51C7               	movf	??_ActualizarMasterMEF& (0+255),w,b
  2202  000ACC  27B5               	addwf	?_tickRead& (0+255),f,b
  2203  000ACE  51C8               	movf	(??_ActualizarMasterMEF+1)& (0+255),w,b
  2204  000AD0  23B6               	addwfc	(?_tickRead+1)& (0+255),f,b
  2205  000AD2  0EF5               	movlw	245
  2206  000AD4  5DB5               	subwf	?_tickRead& (0+255),w,b
  2207  000AD6  0E01               	movlw	1
  2208  000AD8  59B6               	subwfb	(?_tickRead+1)& (0+255),w,b
  2209  000ADA  A0D8               	btfss	status,0,c
  2210  000ADC  0012               	return	
  2211                           
  2212                           ; BSR set to: 0
  2213                           ;MasterMeF.c: 111: estadoActual = INICIAL;
  2214  000ADE  0E00               	movlw	0
  2215  000AE0  6FA1               	movwf	_estadoActual& (0+255),b
  2216                           
  2217                           ; BSR set to: 0
  2218                           ;MasterMeF.c: 112: }
  2219                           ;MasterMeF.c: 113: break;
  2220                           
  2221                           ; BSR set to: 0
  2222  000AE2  0012               	return	
  2223  000AE4                     
  2224                           ; BSR set to: 0
  2225                           ;MasterMeF.c: 116: if (uartReadByte(&data)) {
  2226                           
  2227                           ; BSR set to: 0
  2228  000AE4  0EB4               	movlw	low ActualizarMasterMEF@data
  2229  000AE6  6FB5               	movwf	uartReadByte@receivedByte& (0+255),b
  2230  000AE8  0E00               	movlw	high ActualizarMasterMEF@data
  2231  000AEA  6FB6               	movwf	(uartReadByte@receivedByte+1)& (0+255),b
  2232  000AEC  EC4A  F014         	call	_uartReadByte	;wreg free
  2233  000AF0  0100               	movlb	0	; () banked
  2234  000AF2  A0D8               	btfss	status,0,c
  2235  000AF4  D010               	goto	l820
  2236                           
  2237                           ; BSR set to: 0
  2238                           ;MasterMeF.c: 117: temp = data;
  2239  000AF6  C0B4  F09E         	movff	ActualizarMasterMEF@data,ActualizarMasterMEF@temp
  2240                           
  2241                           ; BSR set to: 0
  2242                           ;MasterMeF.c: 118: timeout = tickRead();
  2243  000AFA  EC56  F014         	call	_tickRead	;wreg free
  2244  000AFE  C0B5  F098         	movff	?_tickRead,_timeout
  2245  000B02  C0B6  F099         	movff	?_tickRead+1,_timeout+1
  2246                           
  2247                           ;MasterMeF.c: 119: pkg.estructura.temp=temp;
  2248  000B06  C09E  F0CB         	movff	ActualizarMasterMEF@temp,ActualizarMasterMEF@pkg+2
  2249                           
  2250                           ;MasterMeF.c: 120: target = 0x96;
  2251  000B0A  0E96               	movlw	150
  2252  000B0C  0100               	movlb	0	; () banked
  2253  000B0E  6FA0               	movwf	ActualizarMasterMEF@target& (0+255),b
  2254                           
  2255                           ; BSR set to: 0
  2256                           ;MasterMeF.c: 121: estadoActual = UART_TX;
  2257  000B10  0E04               	movlw	4
  2258  000B12  6FA1               	movwf	_estadoActual& (0+255),b
  2259                           
  2260                           ;MasterMeF.c: 122: } else if (tickRead() - timeout > 500) {
  2261  000B14  0012               	return	
  2262  000B16                     l820:
  2263                           
  2264                           ; BSR set to: 0
  2265                           
  2266                           ; BSR set to: 0
  2267  000B16  C098  F0C7         	movff	_timeout,??_ActualizarMasterMEF
  2268  000B1A  C099  F0C8         	movff	_timeout+1,??_ActualizarMasterMEF+1
  2269  000B1E  1FC7               	comf	??_ActualizarMasterMEF& (0+255),f,b
  2270  000B20  1FC8               	comf	(??_ActualizarMasterMEF+1)& (0+255),f,b
  2271  000B22  4BC7               	infsnz	??_ActualizarMasterMEF& (0+255),f,b
  2272  000B24  2BC8               	incf	(??_ActualizarMasterMEF+1)& (0+255),f,b
  2273  000B26  EC56  F014         	call	_tickRead	;wreg free
  2274  000B2A  0100               	movlb	0	; () banked
  2275  000B2C  51C7               	movf	??_ActualizarMasterMEF& (0+255),w,b
  2276  000B2E  27B5               	addwf	?_tickRead& (0+255),f,b
  2277  000B30  51C8               	movf	(??_ActualizarMasterMEF+1)& (0+255),w,b
  2278  000B32  23B6               	addwfc	(?_tickRead+1)& (0+255),f,b
  2279  000B34  0EF5               	movlw	245
  2280  000B36  5DB5               	subwf	?_tickRead& (0+255),w,b
  2281  000B38  0E01               	movlw	1
  2282  000B3A  59B6               	subwfb	(?_tickRead+1)& (0+255),w,b
  2283  000B3C  A0D8               	btfss	status,0,c
  2284  000B3E  0012               	return	
  2285                           
  2286                           ; BSR set to: 0
  2287                           ;MasterMeF.c: 123: estadoActual = INICIAL;
  2288  000B40  0E00               	movlw	0
  2289  000B42  6FA1               	movwf	_estadoActual& (0+255),b
  2290                           
  2291                           ; BSR set to: 0
  2292                           ;MasterMeF.c: 124: }
  2293                           ;MasterMeF.c: 125: break;
  2294                           
  2295                           ; BSR set to: 0
  2296  000B44  0012               	return	
  2297  000B46                     
  2298                           ; BSR set to: 0
  2299                           ;MasterMeF.c: 128: if (uartReadByte(&data)) {
  2300                           
  2301                           ; BSR set to: 0
  2302  000B46  0EB4               	movlw	low ActualizarMasterMEF@data
  2303  000B48  6FB5               	movwf	uartReadByte@receivedByte& (0+255),b
  2304  000B4A  0E00               	movlw	high ActualizarMasterMEF@data
  2305  000B4C  6FB6               	movwf	(uartReadByte@receivedByte+1)& (0+255),b
  2306  000B4E  EC4A  F014         	call	_uartReadByte	;wreg free
  2307  000B52  0100               	movlb	0	; () banked
  2308  000B54  A0D8               	btfss	status,0,c
  2309  000B56  D010               	goto	l824
  2310                           
  2311                           ; BSR set to: 0
  2312                           ;MasterMeF.c: 129: temp = data;
  2313  000B58  C0B4  F09E         	movff	ActualizarMasterMEF@data,ActualizarMasterMEF@temp
  2314                           
  2315                           ; BSR set to: 0
  2316                           ;MasterMeF.c: 130: timeout = tickRead();
  2317  000B5C  EC56  F014         	call	_tickRead	;wreg free
  2318  000B60  C0B5  F098         	movff	?_tickRead,_timeout
  2319  000B64  C0B6  F099         	movff	?_tickRead+1,_timeout+1
  2320                           
  2321                           ;MasterMeF.c: 131: pkg.estructura.hum=temp;
  2322  000B68  C09E  F0CE         	movff	ActualizarMasterMEF@temp,ActualizarMasterMEF@pkg+5
  2323                           
  2324                           ;MasterMeF.c: 132: target = 0xC6;
  2325  000B6C  0EC6               	movlw	198
  2326  000B6E  0100               	movlb	0	; () banked
  2327  000B70  6FA0               	movwf	ActualizarMasterMEF@target& (0+255),b
  2328                           
  2329                           ; BSR set to: 0
  2330                           ;MasterMeF.c: 133: estadoActual = UART_TX;
  2331  000B72  0E04               	movlw	4
  2332  000B74  6FA1               	movwf	_estadoActual& (0+255),b
  2333                           
  2334                           ;MasterMeF.c: 134: } else if (tickRead() - timeout > 500) {
  2335  000B76  0012               	return	
  2336  000B78                     l824:
  2337                           
  2338                           ; BSR set to: 0
  2339                           
  2340                           ; BSR set to: 0
  2341  000B78  C098  F0C7         	movff	_timeout,??_ActualizarMasterMEF
  2342  000B7C  C099  F0C8         	movff	_timeout+1,??_ActualizarMasterMEF+1
  2343  000B80  1FC7               	comf	??_ActualizarMasterMEF& (0+255),f,b
  2344  000B82  1FC8               	comf	(??_ActualizarMasterMEF+1)& (0+255),f,b
  2345  000B84  4BC7               	infsnz	??_ActualizarMasterMEF& (0+255),f,b
  2346  000B86  2BC8               	incf	(??_ActualizarMasterMEF+1)& (0+255),f,b
  2347  000B88  EC56  F014         	call	_tickRead	;wreg free
  2348  000B8C  0100               	movlb	0	; () banked
  2349  000B8E  51C7               	movf	??_ActualizarMasterMEF& (0+255),w,b
  2350  000B90  27B5               	addwf	?_tickRead& (0+255),f,b
  2351  000B92  51C8               	movf	(??_ActualizarMasterMEF+1)& (0+255),w,b
  2352  000B94  23B6               	addwfc	(?_tickRead+1)& (0+255),f,b
  2353  000B96  0EF5               	movlw	245
  2354  000B98  5DB5               	subwf	?_tickRead& (0+255),w,b
  2355  000B9A  0E01               	movlw	1
  2356  000B9C  59B6               	subwfb	(?_tickRead+1)& (0+255),w,b
  2357  000B9E  A0D8               	btfss	status,0,c
  2358  000BA0  0012               	return	
  2359                           
  2360                           ; BSR set to: 0
  2361                           ;MasterMeF.c: 135: estadoActual = INICIAL;
  2362  000BA2  0E00               	movlw	0
  2363  000BA4  6FA1               	movwf	_estadoActual& (0+255),b
  2364                           
  2365                           ; BSR set to: 0
  2366                           ;MasterMeF.c: 136: }
  2367                           ;MasterMeF.c: 137: break;
  2368                           
  2369                           ; BSR set to: 0
  2370  000BA6  0012               	return	
  2371  000BA8                     
  2372                           ; BSR set to: 0
  2373                           ;MasterMeF.c: 140: if (uartReadByte(&data)) {
  2374                           
  2375                           ; BSR set to: 0
  2376  000BA8  0EB4               	movlw	low ActualizarMasterMEF@data
  2377  000BAA  6FB5               	movwf	uartReadByte@receivedByte& (0+255),b
  2378  000BAC  0E00               	movlw	high ActualizarMasterMEF@data
  2379  000BAE  6FB6               	movwf	(uartReadByte@receivedByte+1)& (0+255),b
  2380  000BB0  EC4A  F014         	call	_uartReadByte	;wreg free
  2381  000BB4  0100               	movlb	0	; () banked
  2382  000BB6  A0D8               	btfss	status,0,c
  2383  000BB8  D015               	goto	l828
  2384                           
  2385                           ; BSR set to: 0
  2386                           ;MasterMeF.c: 141: temp = data;
  2387  000BBA  C0B4  F09E         	movff	ActualizarMasterMEF@data,ActualizarMasterMEF@temp
  2388                           
  2389                           ; BSR set to: 0
  2390                           ;MasterMeF.c: 142: if (temp == 0xC8) {
  2391  000BBE  0EC8               	movlw	200
  2392  000BC0  199E               	xorwf	ActualizarMasterMEF@temp& (0+255),w,b
  2393  000BC2  A4D8               	btfss	status,2,c
  2394  000BC4  D00A               	goto	l829
  2395                           
  2396                           ; BSR set to: 0
  2397                           ;MasterMeF.c: 143: timeout = tickRead();
  2398  000BC6  EC56  F014         	call	_tickRead	;wreg free
  2399  000BCA  C0B5  F098         	movff	?_tickRead,_timeout
  2400  000BCE  C0B6  F099         	movff	?_tickRead+1,_timeout+1
  2401                           
  2402                           ;MasterMeF.c: 144: estadoActual = INICIAL;
  2403  000BD2  0E00               	movlw	0
  2404  000BD4  0100               	movlb	0	; () banked
  2405  000BD6  6FA1               	movwf	_estadoActual& (0+255),b
  2406                           
  2407                           ;MasterMeF.c: 145: } else {
  2408  000BD8  0012               	return	
  2409  000BDA                     l829:
  2410                           
  2411                           ; BSR set to: 0
  2412                           ;MasterMeF.c: 146: target = 0xC1;
  2413                           
  2414                           ; BSR set to: 0
  2415  000BDA  0EC1               	movlw	193
  2416  000BDC  6FA0               	movwf	ActualizarMasterMEF@target& (0+255),b
  2417                           
  2418                           ;MasterMeF.c: 147: estadoActual = UART_TX;
  2419  000BDE  0E04               	movlw	4
  2420  000BE0  6FA1               	movwf	_estadoActual& (0+255),b
  2421                           
  2422                           ; BSR set to: 0
  2423                           ;MasterMeF.c: 148: }
  2424                           ;MasterMeF.c: 150: } else if (tickRead() - timeout > 500) {
  2425  000BE2  0012               	return	
  2426  000BE4                     l828:
  2427                           
  2428                           ; BSR set to: 0
  2429                           
  2430                           ; BSR set to: 0
  2431  000BE4  C098  F0C7         	movff	_timeout,??_ActualizarMasterMEF
  2432  000BE8  C099  F0C8         	movff	_timeout+1,??_ActualizarMasterMEF+1
  2433  000BEC  1FC7               	comf	??_ActualizarMasterMEF& (0+255),f,b
  2434  000BEE  1FC8               	comf	(??_ActualizarMasterMEF+1)& (0+255),f,b
  2435  000BF0  4BC7               	infsnz	??_ActualizarMasterMEF& (0+255),f,b
  2436  000BF2  2BC8               	incf	(??_ActualizarMasterMEF+1)& (0+255),f,b
  2437  000BF4  EC56  F014         	call	_tickRead	;wreg free
  2438  000BF8  0100               	movlb	0	; () banked
  2439  000BFA  51C7               	movf	??_ActualizarMasterMEF& (0+255),w,b
  2440  000BFC  27B5               	addwf	?_tickRead& (0+255),f,b
  2441  000BFE  51C8               	movf	(??_ActualizarMasterMEF+1)& (0+255),w,b
  2442  000C00  23B6               	addwfc	(?_tickRead+1)& (0+255),f,b
  2443  000C02  0EF5               	movlw	245
  2444  000C04  5DB5               	subwf	?_tickRead& (0+255),w,b
  2445  000C06  0E01               	movlw	1
  2446  000C08  59B6               	subwfb	(?_tickRead+1)& (0+255),w,b
  2447  000C0A  A0D8               	btfss	status,0,c
  2448  000C0C  0012               	return	
  2449                           
  2450                           ; BSR set to: 0
  2451                           ;MasterMeF.c: 151: estadoActual = INICIAL;
  2452  000C0E  0E00               	movlw	0
  2453  000C10  6FA1               	movwf	_estadoActual& (0+255),b
  2454                           
  2455                           ; BSR set to: 0
  2456                           ;MasterMeF.c: 152: }
  2457                           ;MasterMeF.c: 153: break;
  2458                           
  2459                           ; BSR set to: 0
  2460  000C12  0012               	return	
  2461  000C14                     
  2462                           ; BSR set to: 0
  2463                           ;MasterMeF.c: 155: if (uartReadByte(&data)) {
  2464                           
  2465                           ; BSR set to: 0
  2466  000C14  0EB4               	movlw	low ActualizarMasterMEF@data
  2467  000C16  6FB5               	movwf	uartReadByte@receivedByte& (0+255),b
  2468  000C18  0E00               	movlw	high ActualizarMasterMEF@data
  2469  000C1A  6FB6               	movwf	(uartReadByte@receivedByte+1)& (0+255),b
  2470  000C1C  EC4A  F014         	call	_uartReadByte	;wreg free
  2471  000C20  0100               	movlb	0	; () banked
  2472  000C22  A0D8               	btfss	status,0,c
  2473  000C24  D015               	goto	l834
  2474                           
  2475                           ; BSR set to: 0
  2476                           ;MasterMeF.c: 156: temp = data;
  2477  000C26  C0B4  F09E         	movff	ActualizarMasterMEF@data,ActualizarMasterMEF@temp
  2478                           
  2479                           ; BSR set to: 0
  2480                           ;MasterMeF.c: 157: if (temp == 0xC8) {
  2481  000C2A  0EC8               	movlw	200
  2482  000C2C  199E               	xorwf	ActualizarMasterMEF@temp& (0+255),w,b
  2483  000C2E  A4D8               	btfss	status,2,c
  2484  000C30  D00A               	goto	l835
  2485                           
  2486                           ; BSR set to: 0
  2487                           ;MasterMeF.c: 158: timeout = tickRead();
  2488  000C32  EC56  F014         	call	_tickRead	;wreg free
  2489  000C36  C0B5  F098         	movff	?_tickRead,_timeout
  2490  000C3A  C0B6  F099         	movff	?_tickRead+1,_timeout+1
  2491                           
  2492                           ;MasterMeF.c: 159: estadoActual = INICIAL;
  2493  000C3E  0E00               	movlw	0
  2494  000C40  0100               	movlb	0	; () banked
  2495  000C42  6FA1               	movwf	_estadoActual& (0+255),b
  2496                           
  2497                           ;MasterMeF.c: 160: } else {
  2498  000C44  0012               	return	
  2499  000C46                     l835:
  2500                           
  2501                           ; BSR set to: 0
  2502                           ;MasterMeF.c: 161: target = 0xC3;
  2503                           
  2504                           ; BSR set to: 0
  2505  000C46  0EC3               	movlw	195
  2506  000C48  6FA0               	movwf	ActualizarMasterMEF@target& (0+255),b
  2507                           
  2508                           ;MasterMeF.c: 162: estadoActual = UART_TX;
  2509  000C4A  0E04               	movlw	4
  2510  000C4C  6FA1               	movwf	_estadoActual& (0+255),b
  2511                           
  2512                           ; BSR set to: 0
  2513                           ;MasterMeF.c: 163: }
  2514                           ;MasterMeF.c: 165: } else if (tickRead() - timeout > 500) {
  2515  000C4E  0012               	return	
  2516  000C50                     l834:
  2517                           
  2518                           ; BSR set to: 0
  2519                           
  2520                           ; BSR set to: 0
  2521  000C50  C098  F0C7         	movff	_timeout,??_ActualizarMasterMEF
  2522  000C54  C099  F0C8         	movff	_timeout+1,??_ActualizarMasterMEF+1
  2523  000C58  1FC7               	comf	??_ActualizarMasterMEF& (0+255),f,b
  2524  000C5A  1FC8               	comf	(??_ActualizarMasterMEF+1)& (0+255),f,b
  2525  000C5C  4BC7               	infsnz	??_ActualizarMasterMEF& (0+255),f,b
  2526  000C5E  2BC8               	incf	(??_ActualizarMasterMEF+1)& (0+255),f,b
  2527  000C60  EC56  F014         	call	_tickRead	;wreg free
  2528  000C64  0100               	movlb	0	; () banked
  2529  000C66  51C7               	movf	??_ActualizarMasterMEF& (0+255),w,b
  2530  000C68  27B5               	addwf	?_tickRead& (0+255),f,b
  2531  000C6A  51C8               	movf	(??_ActualizarMasterMEF+1)& (0+255),w,b
  2532  000C6C  23B6               	addwfc	(?_tickRead+1)& (0+255),f,b
  2533  000C6E  0EF5               	movlw	245
  2534  000C70  5DB5               	subwf	?_tickRead& (0+255),w,b
  2535  000C72  0E01               	movlw	1
  2536  000C74  59B6               	subwfb	(?_tickRead+1)& (0+255),w,b
  2537  000C76  A0D8               	btfss	status,0,c
  2538  000C78  0012               	return	
  2539                           
  2540                           ; BSR set to: 0
  2541                           ;MasterMeF.c: 166: estadoActual = INICIAL;
  2542  000C7A  0E00               	movlw	0
  2543  000C7C  6FA1               	movwf	_estadoActual& (0+255),b
  2544                           
  2545                           ; BSR set to: 0
  2546                           ;MasterMeF.c: 167: }
  2547                           ;MasterMeF.c: 168: break;
  2548                           
  2549                           ; BSR set to: 0
  2550  000C7E  0012               	return	
  2551  000C80                     
  2552                           ; BSR set to: 0
  2553                           ;MasterMeF.c: 170: if (uartReadByte(&data)) {
  2554                           
  2555                           ; BSR set to: 0
  2556  000C80  0EB4               	movlw	low ActualizarMasterMEF@data
  2557  000C82  6FB5               	movwf	uartReadByte@receivedByte& (0+255),b
  2558  000C84  0E00               	movlw	high ActualizarMasterMEF@data
  2559  000C86  6FB6               	movwf	(uartReadByte@receivedByte+1)& (0+255),b
  2560  000C88  EC4A  F014         	call	_uartReadByte	;wreg free
  2561  000C8C  0100               	movlb	0	; () banked
  2562  000C8E  A0D8               	btfss	status,0,c
  2563  000C90  D015               	goto	l840
  2564                           
  2565                           ; BSR set to: 0
  2566                           ;MasterMeF.c: 171: temp = data;
  2567  000C92  C0B4  F09E         	movff	ActualizarMasterMEF@data,ActualizarMasterMEF@temp
  2568                           
  2569                           ; BSR set to: 0
  2570                           ;MasterMeF.c: 172: if (temp == 0xC8) {
  2571  000C96  0EC8               	movlw	200
  2572  000C98  199E               	xorwf	ActualizarMasterMEF@temp& (0+255),w,b
  2573  000C9A  A4D8               	btfss	status,2,c
  2574  000C9C  D00A               	goto	l841
  2575                           
  2576                           ; BSR set to: 0
  2577                           ;MasterMeF.c: 173: timeout = tickRead();
  2578  000C9E  EC56  F014         	call	_tickRead	;wreg free
  2579  000CA2  C0B5  F098         	movff	?_tickRead,_timeout
  2580  000CA6  C0B6  F099         	movff	?_tickRead+1,_timeout+1
  2581                           
  2582                           ;MasterMeF.c: 174: estadoActual = INICIAL;
  2583  000CAA  0E00               	movlw	0
  2584  000CAC  0100               	movlb	0	; () banked
  2585  000CAE  6FA1               	movwf	_estadoActual& (0+255),b
  2586                           
  2587                           ;MasterMeF.c: 175: } else {
  2588  000CB0  0012               	return	
  2589  000CB2                     l841:
  2590                           
  2591                           ; BSR set to: 0
  2592                           ;MasterMeF.c: 176: target = 0xC2;
  2593                           
  2594                           ; BSR set to: 0
  2595  000CB2  0EC2               	movlw	194
  2596  000CB4  6FA0               	movwf	ActualizarMasterMEF@target& (0+255),b
  2597                           
  2598                           ;MasterMeF.c: 177: estadoActual = UART_TX;
  2599  000CB6  0E04               	movlw	4
  2600  000CB8  6FA1               	movwf	_estadoActual& (0+255),b
  2601                           
  2602                           ; BSR set to: 0
  2603                           ;MasterMeF.c: 178: }
  2604                           ;MasterMeF.c: 180: } else if (tickRead() - timeout > 500) {
  2605  000CBA  0012               	return	
  2606  000CBC                     l840:
  2607                           
  2608                           ; BSR set to: 0
  2609                           
  2610                           ; BSR set to: 0
  2611  000CBC  C098  F0C7         	movff	_timeout,??_ActualizarMasterMEF
  2612  000CC0  C099  F0C8         	movff	_timeout+1,??_ActualizarMasterMEF+1
  2613  000CC4  1FC7               	comf	??_ActualizarMasterMEF& (0+255),f,b
  2614  000CC6  1FC8               	comf	(??_ActualizarMasterMEF+1)& (0+255),f,b
  2615  000CC8  4BC7               	infsnz	??_ActualizarMasterMEF& (0+255),f,b
  2616  000CCA  2BC8               	incf	(??_ActualizarMasterMEF+1)& (0+255),f,b
  2617  000CCC  EC56  F014         	call	_tickRead	;wreg free
  2618  000CD0  0100               	movlb	0	; () banked
  2619  000CD2  51C7               	movf	??_ActualizarMasterMEF& (0+255),w,b
  2620  000CD4  27B5               	addwf	?_tickRead& (0+255),f,b
  2621  000CD6  51C8               	movf	(??_ActualizarMasterMEF+1)& (0+255),w,b
  2622  000CD8  23B6               	addwfc	(?_tickRead+1)& (0+255),f,b
  2623  000CDA  0EF5               	movlw	245
  2624  000CDC  5DB5               	subwf	?_tickRead& (0+255),w,b
  2625  000CDE  0E01               	movlw	1
  2626  000CE0  59B6               	subwfb	(?_tickRead+1)& (0+255),w,b
  2627  000CE2  A0D8               	btfss	status,0,c
  2628  000CE4  0012               	return	
  2629                           
  2630                           ; BSR set to: 0
  2631                           ;MasterMeF.c: 181: estadoActual = INICIAL;
  2632  000CE6  0E00               	movlw	0
  2633  000CE8  6FA1               	movwf	_estadoActual& (0+255),b
  2634                           
  2635                           ; BSR set to: 0
  2636                           ;MasterMeF.c: 182: }
  2637                           ;MasterMeF.c: 183: break;
  2638                           
  2639                           ; BSR set to: 0
  2640  000CEA  0012               	return	
  2641  000CEC                     
  2642                           ; BSR set to: 0
  2643                           ;MasterMeF.c: 185: if (uartReadByte(&data)) {
  2644                           
  2645                           ; BSR set to: 0
  2646  000CEC  0EB4               	movlw	low ActualizarMasterMEF@data
  2647  000CEE  6FB5               	movwf	uartReadByte@receivedByte& (0+255),b
  2648  000CF0  0E00               	movlw	high ActualizarMasterMEF@data
  2649  000CF2  6FB6               	movwf	(uartReadByte@receivedByte+1)& (0+255),b
  2650  000CF4  EC4A  F014         	call	_uartReadByte	;wreg free
  2651  000CF8  0100               	movlb	0	; () banked
  2652  000CFA  A0D8               	btfss	status,0,c
  2653  000CFC  D015               	goto	l846
  2654                           
  2655                           ; BSR set to: 0
  2656                           ;MasterMeF.c: 186: temp = data;
  2657  000CFE  C0B4  F09E         	movff	ActualizarMasterMEF@data,ActualizarMasterMEF@temp
  2658                           
  2659                           ; BSR set to: 0
  2660                           ;MasterMeF.c: 187: if (temp == 0xC8) {
  2661  000D02  0EC8               	movlw	200
  2662  000D04  199E               	xorwf	ActualizarMasterMEF@temp& (0+255),w,b
  2663  000D06  A4D8               	btfss	status,2,c
  2664  000D08  D00A               	goto	l847
  2665                           
  2666                           ; BSR set to: 0
  2667                           ;MasterMeF.c: 188: timeout = tickRead();
  2668  000D0A  EC56  F014         	call	_tickRead	;wreg free
  2669  000D0E  C0B5  F098         	movff	?_tickRead,_timeout
  2670  000D12  C0B6  F099         	movff	?_tickRead+1,_timeout+1
  2671                           
  2672                           ;MasterMeF.c: 189: estadoActual = INICIAL;
  2673  000D16  0E00               	movlw	0
  2674  000D18  0100               	movlb	0	; () banked
  2675  000D1A  6FA1               	movwf	_estadoActual& (0+255),b
  2676                           
  2677                           ;MasterMeF.c: 190: } else {
  2678  000D1C  0012               	return	
  2679  000D1E                     l847:
  2680                           
  2681                           ; BSR set to: 0
  2682                           ;MasterMeF.c: 191: target = 0xC4;
  2683                           
  2684                           ; BSR set to: 0
  2685  000D1E  0EC4               	movlw	196
  2686  000D20  6FA0               	movwf	ActualizarMasterMEF@target& (0+255),b
  2687                           
  2688                           ;MasterMeF.c: 192: estadoActual = UART_TX;
  2689  000D22  0E04               	movlw	4
  2690  000D24  6FA1               	movwf	_estadoActual& (0+255),b
  2691                           
  2692                           ; BSR set to: 0
  2693                           ;MasterMeF.c: 193: }
  2694                           ;MasterMeF.c: 195: } else if (tickRead() - timeout > 500) {
  2695  000D26  0012               	return	
  2696  000D28                     l846:
  2697                           
  2698                           ; BSR set to: 0
  2699                           
  2700                           ; BSR set to: 0
  2701  000D28  C098  F0C7         	movff	_timeout,??_ActualizarMasterMEF
  2702  000D2C  C099  F0C8         	movff	_timeout+1,??_ActualizarMasterMEF+1
  2703  000D30  1FC7               	comf	??_ActualizarMasterMEF& (0+255),f,b
  2704  000D32  1FC8               	comf	(??_ActualizarMasterMEF+1)& (0+255),f,b
  2705  000D34  4BC7               	infsnz	??_ActualizarMasterMEF& (0+255),f,b
  2706  000D36  2BC8               	incf	(??_ActualizarMasterMEF+1)& (0+255),f,b
  2707  000D38  EC56  F014         	call	_tickRead	;wreg free
  2708  000D3C  0100               	movlb	0	; () banked
  2709  000D3E  51C7               	movf	??_ActualizarMasterMEF& (0+255),w,b
  2710  000D40  27B5               	addwf	?_tickRead& (0+255),f,b
  2711  000D42  51C8               	movf	(??_ActualizarMasterMEF+1)& (0+255),w,b
  2712  000D44  23B6               	addwfc	(?_tickRead+1)& (0+255),f,b
  2713  000D46  0EF5               	movlw	245
  2714  000D48  5DB5               	subwf	?_tickRead& (0+255),w,b
  2715  000D4A  0E01               	movlw	1
  2716  000D4C  59B6               	subwfb	(?_tickRead+1)& (0+255),w,b
  2717  000D4E  A0D8               	btfss	status,0,c
  2718  000D50  0012               	return	
  2719                           
  2720                           ; BSR set to: 0
  2721                           ;MasterMeF.c: 196: estadoActual = INICIAL;
  2722  000D52  0E00               	movlw	0
  2723  000D54  6FA1               	movwf	_estadoActual& (0+255),b
  2724                           
  2725                           ; BSR set to: 0
  2726                           ;MasterMeF.c: 199: }
  2727                           
  2728                           ; BSR set to: 0
  2729                           ;MasterMeF.c: 197: }
  2730                           ;MasterMeF.c: 198: break;
  2731                           
  2732                           ; BSR set to: 0
  2733  000D56  0012               	return	
  2734  000D58                     
  2735                           ; BSR set to: 0
  2736                           
  2737                           ; BSR set to: 0
  2738  000D58  51A0               	movf	ActualizarMasterMEF@target& (0+255),w,b
  2739                           
  2740                           ; Switch size 1, requested type "space"
  2741                           ; Number of cases is 9, Range of values is 149 to 199
  2742                           ; switch strategies available:
  2743                           ; Name         Instructions Cycles
  2744                           ; simple_byte           28    15 (average)
  2745                           ;	Chosen strategy is simple_byte
  2746  000D5A  0A95               	xorlw	149	; case 149
  2747  000D5C  B4D8               	btfsc	status,2,c
  2748  000D5E  D6C2               	goto	l819
  2749  000D60  0A03               	xorlw	3	; case 150
  2750  000D62  B4D8               	btfsc	status,2,c
  2751  000D64  D6F0               	goto	l823
  2752  000D66  0A3E               	xorlw	62	; case 168
  2753  000D68  B4D8               	btfsc	status,2,c
  2754  000D6A  D616               	goto	l804
  2755  000D6C  0A69               	xorlw	105	; case 193
  2756  000D6E  B4D8               	btfsc	status,2,c
  2757  000D70  D71B               	goto	l827
  2758  000D72  0A03               	xorlw	3	; case 194
  2759  000D74  B4D8               	btfsc	status,2,c
  2760  000D76  D784               	goto	l839
  2761  000D78  0A01               	xorlw	1	; case 195
  2762  000D7A  B4D8               	btfsc	status,2,c
  2763  000D7C  D74B               	goto	l833
  2764  000D7E  0A07               	xorlw	7	; case 196
  2765  000D80  B4D8               	btfsc	status,2,c
  2766  000D82  D7B4               	goto	l845
  2767  000D84  0A02               	xorlw	2	; case 198
  2768  000D86  B4D8               	btfsc	status,2,c
  2769  000D88  D64D               	goto	l811
  2770  000D8A  0A01               	xorlw	1	; case 199
  2771  000D8C  A4D8               	btfss	status,2,c
  2772                           
  2773                           ; BSR set to: 0
  2774                           ;MasterMeF.c: 200: break;
  2775  000D8E  0012               	return	
  2776  000D90  D67A               	goto	l815
  2777  000D92                     
  2778                           ; BSR set to: 0
  2779                           ;MasterMeF.c: 202: if (USBuartReadByte(&datousb)) {
  2780                           
  2781                           ; BSR set to: 0
  2782  000D92  0EB2               	movlw	low ActualizarMasterMEF@datousb
  2783  000D94  6FC4               	movwf	USBuartReadByte@receivedByte& (0+255),b
  2784  000D96  0E00               	movlw	high ActualizarMasterMEF@datousb
  2785  000D98  6FC5               	movwf	(USBuartReadByte@receivedByte+1)& (0+255),b
  2786  000D9A  EC26  F013         	call	_USBuartReadByte	;wreg free
  2787  000D9E  0100               	movlb	0	; () banked
  2788  000DA0  A0D8               	btfss	status,0,c
  2789  000DA2  D02B               	goto	l852
  2790                           
  2791                           ; BSR set to: 0
  2792                           ;MasterMeF.c: 203: if (datousb == 0xC1) {
  2793  000DA4  0EC1               	movlw	193
  2794  000DA6  19B2               	xorwf	ActualizarMasterMEF@datousb& (0+255),w,b
  2795  000DA8  A4D8               	btfss	status,2,c
  2796  000DAA  D005               	goto	l853
  2797                           
  2798                           ; BSR set to: 0
  2799                           ;MasterMeF.c: 204: estadoActual = UART_TX;
  2800  000DAC  0E04               	movlw	4
  2801  000DAE  6FA1               	movwf	_estadoActual& (0+255),b
  2802                           
  2803                           ;MasterMeF.c: 205: target = 0xC1;
  2804  000DB0  0EC1               	movlw	193
  2805  000DB2  6FA0               	movwf	ActualizarMasterMEF@target& (0+255),b
  2806                           
  2807                           ;MasterMeF.c: 206: }
  2808  000DB4  0012               	return	
  2809  000DB6                     l853:
  2810                           
  2811                           ; BSR set to: 0
  2812                           ;MasterMeF.c: 207: else if (datousb == 0xC3) {
  2813                           
  2814                           ; BSR set to: 0
  2815  000DB6  0EC3               	movlw	195
  2816  000DB8  19B2               	xorwf	ActualizarMasterMEF@datousb& (0+255),w,b
  2817  000DBA  A4D8               	btfss	status,2,c
  2818  000DBC  D005               	goto	l855
  2819                           
  2820                           ; BSR set to: 0
  2821                           ;MasterMeF.c: 208: estadoActual = UART_TX;
  2822  000DBE  0E04               	movlw	4
  2823  000DC0  6FA1               	movwf	_estadoActual& (0+255),b
  2824                           
  2825                           ;MasterMeF.c: 209: target = 0xC3;
  2826  000DC2  0EC3               	movlw	195
  2827  000DC4  6FA0               	movwf	ActualizarMasterMEF@target& (0+255),b
  2828                           
  2829                           ;MasterMeF.c: 210: }
  2830  000DC6  0012               	return	
  2831  000DC8                     l855:
  2832                           
  2833                           ; BSR set to: 0
  2834                           ;MasterMeF.c: 211: else if (datousb == 0xC2) {
  2835                           
  2836                           ; BSR set to: 0
  2837  000DC8  0EC2               	movlw	194
  2838  000DCA  19B2               	xorwf	ActualizarMasterMEF@datousb& (0+255),w,b
  2839  000DCC  A4D8               	btfss	status,2,c
  2840  000DCE  D005               	goto	l857
  2841                           
  2842                           ; BSR set to: 0
  2843                           ;MasterMeF.c: 212: estadoActual = UART_TX;
  2844  000DD0  0E04               	movlw	4
  2845  000DD2  6FA1               	movwf	_estadoActual& (0+255),b
  2846                           
  2847                           ;MasterMeF.c: 213: target = 0xC2;
  2848  000DD4  0EC2               	movlw	194
  2849  000DD6  6FA0               	movwf	ActualizarMasterMEF@target& (0+255),b
  2850                           
  2851                           ;MasterMeF.c: 214: }
  2852  000DD8  0012               	return	
  2853  000DDA                     l857:
  2854                           
  2855                           ; BSR set to: 0
  2856                           ;MasterMeF.c: 215: else if (datousb == 0xC4) {
  2857                           
  2858                           ; BSR set to: 0
  2859  000DDA  0EC4               	movlw	196
  2860  000DDC  19B2               	xorwf	ActualizarMasterMEF@datousb& (0+255),w,b
  2861  000DDE  A4D8               	btfss	status,2,c
  2862  000DE0  D005               	goto	l859
  2863                           
  2864                           ; BSR set to: 0
  2865                           ;MasterMeF.c: 216: estadoActual = UART_TX;
  2866  000DE2  0E04               	movlw	4
  2867  000DE4  6FA1               	movwf	_estadoActual& (0+255),b
  2868                           
  2869                           ;MasterMeF.c: 217: target = 0xC4;
  2870  000DE6  0EC4               	movlw	196
  2871  000DE8  6FA0               	movwf	ActualizarMasterMEF@target& (0+255),b
  2872                           
  2873                           ;MasterMeF.c: 218: }
  2874  000DEA  0012               	return	
  2875  000DEC                     l859:
  2876                           
  2877                           ; BSR set to: 0
  2878                           ;MasterMeF.c: 219: else if (datousb == 0x66) {
  2879                           
  2880                           ; BSR set to: 0
  2881  000DEC  0E66               	movlw	102
  2882  000DEE  19B2               	xorwf	ActualizarMasterMEF@datousb& (0+255),w,b
  2883  000DF0  A4D8               	btfss	status,2,c
  2884  000DF2  0012               	return	
  2885                           
  2886                           ; BSR set to: 0
  2887                           ;MasterMeF.c: 220: estadoActual = USB_TX;
  2888  000DF4  0E02               	movlw	2
  2889  000DF6  6FA1               	movwf	_estadoActual& (0+255),b
  2890                           
  2891                           ; BSR set to: 0
  2892                           ;MasterMeF.c: 221: }
  2893                           ;MasterMeF.c: 222: } else {
  2894                           
  2895                           ; BSR set to: 0
  2896                           
  2897                           ; BSR set to: 0
  2898                           
  2899                           ; BSR set to: 0
  2900                           
  2901                           ; BSR set to: 0
  2902  000DF8  0012               	return	
  2903  000DFA                     l852:
  2904                           
  2905                           ; BSR set to: 0
  2906                           ;MasterMeF.c: 223: if(tickRead()-tloop>500){
  2907                           
  2908                           ; BSR set to: 0
  2909  000DFA  C096  F0C7         	movff	_tloop,??_ActualizarMasterMEF
  2910  000DFE  C097  F0C8         	movff	_tloop+1,??_ActualizarMasterMEF+1
  2911  000E02  1FC7               	comf	??_ActualizarMasterMEF& (0+255),f,b
  2912  000E04  1FC8               	comf	(??_ActualizarMasterMEF+1)& (0+255),f,b
  2913  000E06  4BC7               	infsnz	??_ActualizarMasterMEF& (0+255),f,b
  2914  000E08  2BC8               	incf	(??_ActualizarMasterMEF+1)& (0+255),f,b
  2915  000E0A  EC56  F014         	call	_tickRead	;wreg free
  2916  000E0E  0100               	movlb	0	; () banked
  2917  000E10  51C7               	movf	??_ActualizarMasterMEF& (0+255),w,b
  2918  000E12  27B5               	addwf	?_tickRead& (0+255),f,b
  2919  000E14  51C8               	movf	(??_ActualizarMasterMEF+1)& (0+255),w,b
  2920  000E16  23B6               	addwfc	(?_tickRead+1)& (0+255),f,b
  2921  000E18  0EF5               	movlw	245
  2922  000E1A  5DB5               	subwf	?_tickRead& (0+255),w,b
  2923  000E1C  0E01               	movlw	1
  2924  000E1E  59B6               	subwfb	(?_tickRead+1)& (0+255),w,b
  2925  000E20  A0D8               	btfss	status,0,c
  2926  000E22  0012               	return	
  2927                           
  2928                           ; BSR set to: 0
  2929                           ;MasterMeF.c: 224: tloop=tickRead();
  2930  000E24  EC56  F014         	call	_tickRead	;wreg free
  2931  000E28  C0B5  F096         	movff	?_tickRead,_tloop
  2932  000E2C  C0B6  F097         	movff	?_tickRead+1,_tloop+1
  2933                           
  2934                           ;MasterMeF.c: 225: estadoActual = UART_TX;
  2935  000E30  0E04               	movlw	4
  2936  000E32  0100               	movlb	0	; () banked
  2937  000E34  6FA1               	movwf	_estadoActual& (0+255),b
  2938                           
  2939                           ; BSR set to: 0
  2940                           ;MasterMeF.c: 226: target = 0xA8;
  2941  000E36  0EA8               	movlw	168
  2942  000E38  6FA0               	movwf	ActualizarMasterMEF@target& (0+255),b
  2943                           
  2944                           ; BSR set to: 0
  2945                           ;MasterMeF.c: 227: }
  2946                           ;MasterMeF.c: 228: }
  2947                           ;MasterMeF.c: 229: break;
  2948                           
  2949                           ; BSR set to: 0
  2950  000E3A  0012               	return	
  2951  000E3C                     
  2952                           ; BSR set to: 0
  2953                           ;MasterMeF.c: 232: USBuartWriteByte(0xFC);
  2954                           
  2955                           ; BSR set to: 0
  2956  000E3C  0EFC               	movlw	252
  2957  000E3E  ECA0  F012         	call	_USBuartWriteByte
  2958                           
  2959                           ;MasterMeF.c: 233: USBuartWriteByte(pkg.bytes[0]);
  2960  000E42  0100               	movlb	0	; () banked
  2961  000E44  51C9               	movf	ActualizarMasterMEF@pkg& (0+255),w,b
  2962  000E46  ECA0  F012         	call	_USBuartWriteByte
  2963                           
  2964                           ;MasterMeF.c: 234: USBuartWriteByte(pkg.bytes[1]);
  2965  000E4A  0100               	movlb	0	; () banked
  2966  000E4C  51CA               	movf	(ActualizarMasterMEF@pkg+1)& (0+255),w,b
  2967  000E4E  ECA0  F012         	call	_USBuartWriteByte
  2968                           
  2969                           ;MasterMeF.c: 235: USBuartWriteByte(pkg.bytes[2]);
  2970  000E52  0100               	movlb	0	; () banked
  2971  000E54  51CB               	movf	(ActualizarMasterMEF@pkg+2)& (0+255),w,b
  2972  000E56  ECA0  F012         	call	_USBuartWriteByte
  2973                           
  2974                           ;MasterMeF.c: 236: USBuartWriteByte(pkg.bytes[3]);
  2975  000E5A  0100               	movlb	0	; () banked
  2976  000E5C  51CC               	movf	(ActualizarMasterMEF@pkg+3)& (0+255),w,b
  2977  000E5E  ECA0  F012         	call	_USBuartWriteByte
  2978                           
  2979                           ;MasterMeF.c: 237: USBuartWriteByte(pkg.bytes[4]);
  2980  000E62  0100               	movlb	0	; () banked
  2981  000E64  51CD               	movf	(ActualizarMasterMEF@pkg+4)& (0+255),w,b
  2982  000E66  ECA0  F012         	call	_USBuartWriteByte
  2983                           
  2984                           ;MasterMeF.c: 238: USBuartWriteByte(pkg.bytes[5]);
  2985  000E6A  0100               	movlb	0	; () banked
  2986  000E6C  51CE               	movf	(ActualizarMasterMEF@pkg+5)& (0+255),w,b
  2987  000E6E  ECA0  F012         	call	_USBuartWriteByte
  2988                           
  2989                           ;MasterMeF.c: 239: USBuartWriteByte(0xFE);
  2990  000E72  0EFE               	movlw	254
  2991  000E74  ECA0  F012         	call	_USBuartWriteByte
  2992                           
  2993                           ;MasterMeF.c: 240: estadoActual=INICIAL;
  2994  000E78  0E00               	movlw	0
  2995  000E7A  0100               	movlb	0	; () banked
  2996  000E7C  6FA1               	movwf	_estadoActual& (0+255),b
  2997                           
  2998                           ; BSR set to: 0
  2999                           ;MasterMeF.c: 242: }
  3000                           
  3001                           ;MasterMeF.c: 241: break;
  3002  000E7E  0012               	return	
  3003  000E80                     l791:
  3004                           
  3005                           ; BSR set to: 0
  3006  000E80  0100               	movlb	0	; () banked
  3007  000E82  51A1               	movf	_estadoActual& (0+255),w,b
  3008                           
  3009                           ; Switch size 1, requested type "space"
  3010                           ; Number of cases is 5, Range of values is 0 to 4
  3011                           ; switch strategies available:
  3012                           ; Name         Instructions Cycles
  3013                           ; simple_byte           16     9 (average)
  3014                           ;	Chosen strategy is simple_byte
  3015  000E84  0A00               	xorlw	0	; case 0
  3016  000E86  B4D8               	btfsc	status,2,c
  3017  000E88  D527               	goto	l792
  3018  000E8A  0A01               	xorlw	1	; case 1
  3019  000E8C  B4D8               	btfsc	status,2,c
  3020  000E8E  D781               	goto	l851
  3021  000E90  0A03               	xorlw	3	; case 2
  3022  000E92  B4D8               	btfsc	status,2,c
  3023  000E94  D7D3               	goto	l864
  3024  000E96  0A01               	xorlw	1	; case 3
  3025  000E98  B4D8               	btfsc	status,2,c
  3026  000E9A  D75E               	goto	l803
  3027  000E9C  0A07               	xorlw	7	; case 4
  3028  000E9E  A4D8               	btfss	status,2,c
  3029  000EA0  0012               	return	
  3030  000EA2  D552               	goto	l796
  3031  000EA4                     __end_of_ActualizarMasterMEF:
  3032                           	opt stack 0
  3033                           tblptru	equ	0xFF8
  3034                           prodh	equ	0xFF4
  3035                           prodl	equ	0xFF3
  3036                           intcon	equ	0xFF2
  3037                           postinc0	equ	0xFEE
  3038                           wreg	equ	0xFE8
  3039                           indf2	equ	0xFDF
  3040                           postinc2	equ	0xFDE
  3041                           postdec2	equ	0xFDD
  3042                           fsr2h	equ	0xFDA
  3043                           fsr2l	equ	0xFD9
  3044                           status	equ	0xFD8
  3045                           
  3046 ;; *************** function _uartWriteByte *****************
  3047 ;; Defined at:
  3048 ;;		line 147 in file "user.c"
  3049 ;; Parameters:    Size  Location     Type
  3050 ;;  value           1    wreg     unsigned char 
  3051 ;; Auto vars:     Size  Location     Type
  3052 ;;  value           1    0[BANK0 ] unsigned char 
  3053 ;; Return value:  Size  Location     Type
  3054 ;;                  1    wreg      void 
  3055 ;; Registers used:
  3056 ;;		wreg
  3057 ;; Tracked objects:
  3058 ;;		On entry : 0/0
  3059 ;;		On exit  : 0/0
  3060 ;;		Unchanged: 0/0
  3061 ;; Data sizes:     COMRAM   BANK0   BANK1   BANK2   BANK3   BANK4   BANK5   BANK6   BANK7
  3062 ;;      Params:         0       0       0       0       0       0       0       0       0
  3063 ;;      Locals:         0       1       0       0       0       0       0       0       0
  3064 ;;      Temps:          0       0       0       0       0       0       0       0       0
  3065 ;;      Totals:         0       1       0       0       0       0       0       0       0
  3066 ;;Total ram usage:        1 bytes
  3067 ;; Hardware stack levels used:    1
  3068 ;; Hardware stack levels required when called:   10
  3069 ;; This function calls:
  3070 ;;		Nothing
  3071 ;; This function is called by:
  3072 ;;		_ActualizarMasterMEF
  3073 ;; This function uses a non-reentrant model
  3074 ;;
  3075                           
  3076                           	psect	text9
  3077  0028D6                     __ptext9:
  3078                           	opt stack 0
  3079  0028D6                     _uartWriteByte:
  3080                           	opt stack 19
  3081                           
  3082                           ;incstack = 0
  3083                           ;uartWriteByte@value stored from wreg
  3084  0028D6  0100               	movlb	0	; () banked
  3085  0028D8  6FB5               	movwf	uartWriteByte@value& (0+255),b
  3086  0028DA                     
  3087                           ;user.c: 150: continue;
  3088                           
  3089                           ;user.c: 149: while (!TXIF)
  3090  0028DA  A89E               	btfss	3998,4,c	;volatile
  3091  0028DC  D7FE               	goto	l5049
  3092                           
  3093                           ;user.c: 152: TXREG = value;
  3094  0028DE  C0B5  FFAD         	movff	uartWriteByte@value,4013	;volatile
  3095  0028E2  0012               	return		;funcret
  3096  0028E4                     __end_of_uartWriteByte:
  3097                           	opt stack 0
  3098                           tblptru	equ	0xFF8
  3099                           prodh	equ	0xFF4
  3100                           prodl	equ	0xFF3
  3101                           intcon	equ	0xFF2
  3102                           postinc0	equ	0xFEE
  3103                           wreg	equ	0xFE8
  3104                           indf2	equ	0xFDF
  3105                           postinc2	equ	0xFDE
  3106                           postdec2	equ	0xFDD
  3107                           fsr2h	equ	0xFDA
  3108                           fsr2l	equ	0xFD9
  3109                           status	equ	0xFD8
  3110                           
  3111 ;; *************** function _uartReadByte *****************
  3112 ;; Defined at:
  3113 ;;		line 171 in file "user.c"
  3114 ;; Parameters:    Size  Location     Type
  3115 ;;  receivedByte    2    0[BANK0 ] PTR unsigned char 
  3116 ;;		 -> ActualizarMasterMEF@data(1), ActualizarMasterMEF@aux(1), 
  3117 ;; Auto vars:     Size  Location     Type
  3118 ;;		None
  3119 ;; Return value:  Size  Location     Type
  3120 ;;		None               void
  3121 ;; Registers used:
  3122 ;;		fsr2l, fsr2h, status,0
  3123 ;; Tracked objects:
  3124 ;;		On entry : 0/0
  3125 ;;		On exit  : 0/0
  3126 ;;		Unchanged: 0/0
  3127 ;; Data sizes:     COMRAM   BANK0   BANK1   BANK2   BANK3   BANK4   BANK5   BANK6   BANK7
  3128 ;;      Params:         0       2       0       0       0       0       0       0       0
  3129 ;;      Locals:         0       0       0       0       0       0       0       0       0
  3130 ;;      Temps:          0       0       0       0       0       0       0       0       0
  3131 ;;      Totals:         0       2       0       0       0       0       0       0       0
  3132 ;;Total ram usage:        2 bytes
  3133 ;; Hardware stack levels used:    1
  3134 ;; Hardware stack levels required when called:   10
  3135 ;; This function calls:
  3136 ;;		Nothing
  3137 ;; This function is called by:
  3138 ;;		_ActualizarMasterMEF
  3139 ;; This function uses a non-reentrant model
  3140 ;;
  3141                           
  3142                           	psect	text10
  3143  002894                     __ptext10:
  3144                           	opt stack 0
  3145  002894                     _uartReadByte:
  3146                           	opt stack 19
  3147                           
  3148                           ;user.c: 172: if ( RCIF ){
  3149                           
  3150                           ;incstack = 0
  3151  002894  AA9E               	btfss	3998,5,c	;volatile
  3152  002896  D008               	goto	l682
  3153                           
  3154                           ;user.c: 173: *receivedByte = RCREG;
  3155  002898  C0B5  FFD9         	movff	uartReadByte@receivedByte,fsr2l
  3156  00289C  C0B6  FFDA         	movff	uartReadByte@receivedByte+1,fsr2h
  3157  0028A0  CFAE FFDF          	movff	4014,indf2	;volatile
  3158                           
  3159                           ;user.c: 174: return 1;
  3160  0028A4  80D8               	bsf	status,0,c
  3161  0028A6  0012               	return	
  3162  0028A8                     l682:
  3163                           
  3164                           ;user.c: 175: }
  3165                           ;user.c: 176: return 0;
  3166  0028A8  90D8               	bcf	status,0,c
  3167  0028AA  0012               	return	
  3168  0028AC                     __end_of_uartReadByte:
  3169                           	opt stack 0
  3170                           tblptru	equ	0xFF8
  3171                           prodh	equ	0xFF4
  3172                           prodl	equ	0xFF3
  3173                           intcon	equ	0xFF2
  3174                           postinc0	equ	0xFEE
  3175                           wreg	equ	0xFE8
  3176                           indf2	equ	0xFDF
  3177                           postinc2	equ	0xFDE
  3178                           postdec2	equ	0xFDD
  3179                           fsr2h	equ	0xFDA
  3180                           fsr2l	equ	0xFD9
  3181                           status	equ	0xFD8
  3182                           
  3183 ;; *************** function _tickRead *****************
  3184 ;; Defined at:
  3185 ;;		line 212 in file "user.c"
  3186 ;; Parameters:    Size  Location     Type
  3187 ;;		None
  3188 ;; Auto vars:     Size  Location     Type
  3189 ;;  aux             2    2[BANK0 ] unsigned int 
  3190 ;; Return value:  Size  Location     Type
  3191 ;;                  2    0[BANK0 ] unsigned int 
  3192 ;; Registers used:
  3193 ;;		None
  3194 ;; Tracked objects:
  3195 ;;		On entry : 0/0
  3196 ;;		On exit  : 0/0
  3197 ;;		Unchanged: 0/0
  3198 ;; Data sizes:     COMRAM   BANK0   BANK1   BANK2   BANK3   BANK4   BANK5   BANK6   BANK7
  3199 ;;      Params:         0       2       0       0       0       0       0       0       0
  3200 ;;      Locals:         0       2       0       0       0       0       0       0       0
  3201 ;;      Temps:          0       0       0       0       0       0       0       0       0
  3202 ;;      Totals:         0       4       0       0       0       0       0       0       0
  3203 ;;Total ram usage:        4 bytes
  3204 ;; Hardware stack levels used:    1
  3205 ;; Hardware stack levels required when called:   10
  3206 ;; This function calls:
  3207 ;;		Nothing
  3208 ;; This function is called by:
  3209 ;;		_main
  3210 ;;		_IniciarMasterMEF
  3211 ;;		_ActualizarMasterMEF
  3212 ;; This function uses a non-reentrant model
  3213 ;;
  3214                           
  3215                           	psect	text11
  3216  0028AC                     __ptext11:
  3217                           	opt stack 0
  3218  0028AC                     _tickRead:
  3219                           	opt stack 20
  3220                           
  3221                           ;user.c: 213: tick_t aux;
  3222                           ;user.c: 214: GIE = 0;
  3223                           
  3224                           ;incstack = 0
  3225  0028AC  9EF2               	bcf	intcon,7,c	;volatile
  3226                           
  3227                           ;user.c: 215: aux = tickCounter;
  3228  0028AE  C039  F0B7         	movff	_tickCounter,tickRead@aux	;volatile
  3229  0028B2  C03A  F0B8         	movff	_tickCounter+1,tickRead@aux+1	;volatile
  3230                           
  3231                           ;user.c: 216: GIE = 1;
  3232  0028B6  8EF2               	bsf	intcon,7,c	;volatile
  3233                           
  3234                           ;user.c: 217: return aux;
  3235  0028B8  C0B7  F0B5         	movff	tickRead@aux,?_tickRead
  3236  0028BC  C0B8  F0B6         	movff	tickRead@aux+1,?_tickRead+1
  3237  0028C0  0012               	return		;funcret
  3238  0028C2                     __end_of_tickRead:
  3239                           	opt stack 0
  3240                           tblptru	equ	0xFF8
  3241                           prodh	equ	0xFF4
  3242                           prodl	equ	0xFF3
  3243                           intcon	equ	0xFF2
  3244                           postinc0	equ	0xFEE
  3245                           wreg	equ	0xFE8
  3246                           indf2	equ	0xFDF
  3247                           postinc2	equ	0xFDE
  3248                           postdec2	equ	0xFDD
  3249                           fsr2h	equ	0xFDA
  3250                           fsr2l	equ	0xFD9
  3251                           status	equ	0xFD8
  3252                           
  3253 ;; *************** function _USBuartWriteByte *****************
  3254 ;; Defined at:
  3255 ;;		line 18 in file "usb_uart.c"
  3256 ;; Parameters:    Size  Location     Type
  3257 ;;  dato            1    wreg     unsigned char 
  3258 ;; Auto vars:     Size  Location     Type
  3259 ;;  dato            1   14[BANK0 ] unsigned char 
  3260 ;; Return value:  Size  Location     Type
  3261 ;;                  1    wreg      void 
  3262 ;; Registers used:
  3263 ;;		wreg, fsr1l, fsr1h, fsr2l, fsr2h, status,2, status,0, prodl, prodh, cstack
  3264 ;; Tracked objects:
  3265 ;;		On entry : 0/0
  3266 ;;		On exit  : 0/0
  3267 ;;		Unchanged: 0/0
  3268 ;; Data sizes:     COMRAM   BANK0   BANK1   BANK2   BANK3   BANK4   BANK5   BANK6   BANK7
  3269 ;;      Params:         0       0       0       0       0       0       0       0       0
  3270 ;;      Locals:         0       1       0       0       0       0       0       0       0
  3271 ;;      Temps:          0       1       0       0       0       0       0       0       0
  3272 ;;      Totals:         0       2       0       0       0       0       0       0       0
  3273 ;;Total ram usage:        2 bytes
  3274 ;; Hardware stack levels used:    1
  3275 ;; Hardware stack levels required when called:   12
  3276 ;; This function calls:
  3277 ;;		_CDCTxService
  3278 ;;		_putUSBUSART
  3279 ;; This function is called by:
  3280 ;;		_ActualizarMasterMEF
  3281 ;; This function uses a non-reentrant model
  3282 ;;
  3283                           
  3284                           	psect	text12
  3285  002540                     __ptext12:
  3286                           	opt stack 0
  3287  002540                     _USBuartWriteByte:
  3288                           	opt stack 17
  3289                           
  3290                           ;incstack = 0
  3291                           ;USBuartWriteByte@dato stored from wreg
  3292  002540  0100               	movlb	0	; () banked
  3293  002542  6FC3               	movwf	USBuartWriteByte@dato& (0+255),b
  3294                           
  3295                           ;usb_uart.c: 19: if( USBDeviceState < CONFIGURED_STATE )
  3296  002544  0E20               	movlw	32
  3297  002546  6052               	cpfslt	_USBDeviceState,c	;volatile
  3298  002548  D001               	goto	l733
  3299  00254A  0012               	return	
  3300  00254C                     l733:
  3301                           
  3302                           ;usb_uart.c: 22: }
  3303                           ;usb_uart.c: 24: if( UCONbits.SUSPND == 1 )
  3304  00254C  B26D               	btfsc	3949,1,c	;volatile
  3305  00254E  0012               	return	
  3306                           
  3307                           ;usb_uart.c: 27: }
  3308                           ;usb_uart.c: 29: if( (cdc_trf_state == 0) == 1 ) {
  3309                           
  3310                           ;usb_uart.c: 25: {
  3311                           ;usb_uart.c: 26: return;
  3312  002550  0100               	movlb	0	; () banked
  3313  002552  51A2               	movf	_cdc_trf_state& (0+255),w,b
  3314  002554  A4D8               	btfss	status,2,c
  3315  002556  D008               	goto	l736
  3316                           
  3317                           ; BSR set to: 0
  3318                           ;usb_uart.c: 30: putUSBUSART(&dato, 1);
  3319  002558  0EC3               	movlw	low USBuartWriteByte@dato
  3320  00255A  6FB5               	movwf	putUSBUSART@data& (0+255),b
  3321  00255C  0E00               	movlw	high USBuartWriteByte@dato
  3322  00255E  6FB6               	movwf	(putUSBUSART@data+1)& (0+255),b
  3323  002560  0E01               	movlw	1
  3324  002562  6FB7               	movwf	putUSBUSART@length& (0+255),b
  3325  002564  EC0A  F014         	call	_putUSBUSART	;wreg free
  3326  002568                     l736:
  3327                           
  3328                           ;usb_uart.c: 31: }
  3329                           ;usb_uart.c: 33: CDCTxService();
  3330  002568  ECFE  F00A         	call	_CDCTxService	;wreg free
  3331                           
  3332                           ;usb_uart.c: 34: _delay((unsigned long)((10)*(16000000L/4000.0)));
  3333  00256C  0E34               	movlw	52
  3334  00256E  0100               	movlb	0	; () banked
  3335  002570  6FC2               	movwf	??_USBuartWriteByte& (0+255),b
  3336  002572  0EF1               	movlw	241
  3337  002574                     u4907:
  3338  002574  2EE8               	decfsz	wreg,f,c
  3339  002576  D7FE               	bra	u4907
  3340  002578  2FC2               	decfsz	??_USBuartWriteByte& (0+255),f,b
  3341  00257A  D7FC               	bra	u4907
  3342  00257C  D000               	nop2	
  3343                           
  3344                           ;usb_uart.c: 35: CDCTxService();
  3345  00257E  ECFE  F00A         	call	_CDCTxService	;wreg free
  3346  002582  0012               	return		;funcret
  3347  002584                     __end_of_USBuartWriteByte:
  3348                           	opt stack 0
  3349                           tblptru	equ	0xFF8
  3350                           prodh	equ	0xFF4
  3351                           prodl	equ	0xFF3
  3352                           intcon	equ	0xFF2
  3353                           postinc0	equ	0xFEE
  3354                           wreg	equ	0xFE8
  3355                           indf2	equ	0xFDF
  3356                           postinc2	equ	0xFDE
  3357                           postdec2	equ	0xFDD
  3358                           fsr2h	equ	0xFDA
  3359                           fsr2l	equ	0xFD9
  3360                           status	equ	0xFD8
  3361                           
  3362 ;; *************** function _putUSBUSART *****************
  3363 ;; Defined at:
  3364 ;;		line 560 in file "usb/src/usb_device_cdc.c"
  3365 ;; Parameters:    Size  Location     Type
  3366 ;;  data            2    0[BANK0 ] PTR unsigned char 
  3367 ;;		 -> USBuartWriteByte@dato(1), 
  3368 ;;  length          1    2[BANK0 ] unsigned char 
  3369 ;; Auto vars:     Size  Location     Type
  3370 ;;		None
  3371 ;; Return value:  Size  Location     Type
  3372 ;;                  1    wreg      void 
  3373 ;; Registers used:
  3374 ;;		wreg, status,2, status,0
  3375 ;; Tracked objects:
  3376 ;;		On entry : 0/0
  3377 ;;		On exit  : 0/0
  3378 ;;		Unchanged: 0/0
  3379 ;; Data sizes:     COMRAM   BANK0   BANK1   BANK2   BANK3   BANK4   BANK5   BANK6   BANK7
  3380 ;;      Params:         0       3       0       0       0       0       0       0       0
  3381 ;;      Locals:         0       0       0       0       0       0       0       0       0
  3382 ;;      Temps:          0       0       0       0       0       0       0       0       0
  3383 ;;      Totals:         0       3       0       0       0       0       0       0       0
  3384 ;;Total ram usage:        3 bytes
  3385 ;; Hardware stack levels used:    1
  3386 ;; Hardware stack levels required when called:   10
  3387 ;; This function calls:
  3388 ;;		Nothing
  3389 ;; This function is called by:
  3390 ;;		_USBuartWriteByte
  3391 ;; This function uses a non-reentrant model
  3392 ;;
  3393                           
  3394                           	psect	text13
  3395  002814                     __ptext13:
  3396                           	opt stack 0
  3397  002814                     _putUSBUSART:
  3398                           	opt stack 18
  3399                           
  3400                           ;usb_device_cdc.c: 585: {PIE2bits.USBIE = 0;};
  3401                           
  3402                           ;incstack = 0
  3403  002814  9AA0               	bcf	4000,5,c	;volatile
  3404                           
  3405                           ;usb_device_cdc.c: 586: if(cdc_trf_state == 0)
  3406  002816  0100               	movlb	0	; () banked
  3407  002818  51A2               	movf	_cdc_trf_state& (0+255),w,b
  3408  00281A  A4D8               	btfss	status,2,c
  3409  00281C  D00A               	goto	l514
  3410                           
  3411                           ; BSR set to: 0
  3412                           ;usb_device_cdc.c: 587: {
  3413                           ;usb_device_cdc.c: 588: { pCDCSrc.bRam = (uint8_t*)data; cdc_tx_len = length; cdc_mem_ty
      +                          pe = 0x01; cdc_trf_state = 1; };
  3414  00281E  C0B5  F036         	movff	putUSBUSART@data,_pCDCSrc
  3415  002822  C0B6  F037         	movff	putUSBUSART@data+1,_pCDCSrc+1
  3416                           
  3417                           ; BSR set to: 0
  3418  002826  C0B7  F046         	movff	putUSBUSART@length,_cdc_tx_len
  3419                           
  3420                           ; BSR set to: 0
  3421  00282A  0E01               	movlw	1
  3422  00282C  6E45               	movwf	_cdc_mem_type,c
  3423                           
  3424                           ; BSR set to: 0
  3425  00282E  0E01               	movlw	1
  3426  002830  6FA2               	movwf	_cdc_trf_state& (0+255),b
  3427  002832                     l514:
  3428                           
  3429                           ; BSR set to: 0
  3430                           ;usb_device_cdc.c: 589: }
  3431                           ;usb_device_cdc.c: 590: {PIE2bits.USBIE = 1;};
  3432                           
  3433                           ; BSR set to: 0
  3434  002832  8AA0               	bsf	4000,5,c	;volatile
  3435                           
  3436                           ; BSR set to: 0
  3437  002834  0012               	return		;funcret
  3438  002836                     __end_of_putUSBUSART:
  3439                           	opt stack 0
  3440                           tblptru	equ	0xFF8
  3441                           prodh	equ	0xFF4
  3442                           prodl	equ	0xFF3
  3443                           intcon	equ	0xFF2
  3444                           postinc0	equ	0xFEE
  3445                           wreg	equ	0xFE8
  3446                           indf2	equ	0xFDF
  3447                           postinc2	equ	0xFDE
  3448                           postdec2	equ	0xFDD
  3449                           fsr2h	equ	0xFDA
  3450                           fsr2l	equ	0xFD9
  3451                           status	equ	0xFD8
  3452                           
  3453 ;; *************** function _CDCTxService *****************
  3454 ;; Defined at:
  3455 ;;		line 840 in file "usb/src/usb_device_cdc.c"
  3456 ;; Parameters:    Size  Location     Type
  3457 ;;		None
  3458 ;; Auto vars:     Size  Location     Type
  3459 ;;  byte_to_send    1   12[BANK0 ] unsigned char 
  3460 ;;  i               1   11[BANK0 ] unsigned char 
  3461 ;; Return value:  Size  Location     Type
  3462 ;;                  1    wreg      void 
  3463 ;; Registers used:
  3464 ;;		wreg, fsr1l, fsr1h, fsr2l, fsr2h, status,2, status,0, prodl, prodh, cstack
  3465 ;; Tracked objects:
  3466 ;;		On entry : 0/0
  3467 ;;		On exit  : 0/0
  3468 ;;		Unchanged: 0/0
  3469 ;; Data sizes:     COMRAM   BANK0   BANK1   BANK2   BANK3   BANK4   BANK5   BANK6   BANK7
  3470 ;;      Params:         0       0       0       0       0       0       0       0       0
  3471 ;;      Locals:         0       2       0       0       0       0       0       0       0
  3472 ;;      Temps:          0       0       0       0       0       0       0       0       0
  3473 ;;      Totals:         0       2       0       0       0       0       0       0       0
  3474 ;;Total ram usage:        2 bytes
  3475 ;; Hardware stack levels used:    1
  3476 ;; Hardware stack levels required when called:   11
  3477 ;; This function calls:
  3478 ;;		_USBTransferOnePacket
  3479 ;; This function is called by:
  3480 ;;		_USBuartWriteByte
  3481 ;; This function uses a non-reentrant model
  3482 ;;
  3483                           
  3484                           	psect	text14
  3485  0015FC                     __ptext14:
  3486                           	opt stack 0
  3487  0015FC                     _CDCTxService:
  3488                           	opt stack 17
  3489                           
  3490                           ;usb_device_cdc.c: 842: uint8_t byte_to_send;
  3491                           ;usb_device_cdc.c: 843: uint8_t i;
  3492                           ;usb_device_cdc.c: 845: {PIE2bits.USBIE = 0;};
  3493                           
  3494                           ; BSR set to: 0
  3495                           ;incstack = 0
  3496  0015FC  9AA0               	bcf	4000,5,c	;volatile
  3497                           
  3498                           ;usb_device_cdc.c: 847: {};
  3499                           ;usb_device_cdc.c: 849: if(((CDCDataInHandle != 0x0000) && ((*(volatile uint8_t*)CDCData
      +                          InHandle & 0x80) != 0x00)))
  3500  0015FE  503B               	movf	_CDCDataInHandle,w,c
  3501  001600  103C               	iorwf	_CDCDataInHandle+1,w,c
  3502  001602  B4D8               	btfsc	status,2,c
  3503  001604  D008               	goto	l532
  3504  001606  C03B  FFD9         	movff	_CDCDataInHandle,fsr2l
  3505  00160A  C03C  FFDA         	movff	_CDCDataInHandle+1,fsr2h
  3506  00160E  AEDF               	btfss	indf2,7,c
  3507  001610  D002               	goto	l532
  3508                           
  3509                           ;usb_device_cdc.c: 850: {
  3510                           ;usb_device_cdc.c: 851: {PIE2bits.USBIE = 1;};
  3511  001612  8AA0               	bsf	4000,5,c	;volatile
  3512                           
  3513                           ;usb_device_cdc.c: 852: return;
  3514  001614  0012               	return	
  3515  001616                     l532:
  3516                           
  3517                           ;usb_device_cdc.c: 853: }
  3518                           ;usb_device_cdc.c: 860: if(cdc_trf_state == 3)
  3519  001616  0E03               	movlw	3
  3520  001618  0100               	movlb	0	; () banked
  3521  00161A  19A2               	xorwf	_cdc_trf_state& (0+255),w,b
  3522  00161C  A4D8               	btfss	status,2,c
  3523  00161E  D002               	goto	l534
  3524                           
  3525                           ; BSR set to: 0
  3526                           ;usb_device_cdc.c: 861: cdc_trf_state = 0;
  3527  001620  0E00               	movlw	0
  3528  001622  6FA2               	movwf	_cdc_trf_state& (0+255),b
  3529  001624                     l534:
  3530                           
  3531                           ; BSR set to: 0
  3532                           ;usb_device_cdc.c: 866: if(cdc_trf_state == 0)
  3533  001624  51A2               	movf	_cdc_trf_state& (0+255),w,b
  3534  001626  A4D8               	btfss	status,2,c
  3535  001628  D002               	goto	l535
  3536                           
  3537                           ; BSR set to: 0
  3538                           ;usb_device_cdc.c: 867: {
  3539                           ;usb_device_cdc.c: 868: {PIE2bits.USBIE = 1;};
  3540  00162A  8AA0               	bsf	4000,5,c	;volatile
  3541                           
  3542                           ;usb_device_cdc.c: 869: return;
  3543  00162C  0012               	return	
  3544  00162E                     l535:
  3545                           
  3546                           ; BSR set to: 0
  3547                           ;usb_device_cdc.c: 870: }
  3548                           ;usb_device_cdc.c: 875: if(cdc_trf_state == 2)
  3549                           
  3550                           ; BSR set to: 0
  3551  00162E  0E02               	movlw	2
  3552  001630  19A2               	xorwf	_cdc_trf_state& (0+255),w,b
  3553  001632  A4D8               	btfss	status,2,c
  3554  001634  D013               	goto	l536
  3555                           
  3556                           ; BSR set to: 0
  3557                           ;usb_device_cdc.c: 876: {
  3558                           ;usb_device_cdc.c: 877: CDCDataInHandle = USBTransferOnePacket(0x02,1,(0),0);
  3559  001636  0E01               	movlw	1
  3560  001638  6FB5               	movwf	USBTransferOnePacket@dir& (0+255),b
  3561  00163A  0E00               	movlw	0
  3562  00163C  6FB6               	movwf	USBTransferOnePacket@data& (0+255),b
  3563  00163E  0E00               	movlw	0
  3564  001640  6FB7               	movwf	(USBTransferOnePacket@data+1)& (0+255),b
  3565  001642  0E00               	movlw	0
  3566  001644  6FB8               	movwf	USBTransferOnePacket@len& (0+255),b
  3567  001646  0E02               	movlw	2
  3568  001648  EC0F  F00C         	call	_USBTransferOnePacket
  3569  00164C  C0B5  F03B         	movff	?_USBTransferOnePacket,_CDCDataInHandle
  3570  001650  C0B6  F03C         	movff	?_USBTransferOnePacket+1,_CDCDataInHandle+1
  3571                           
  3572                           ;usb_device_cdc.c: 879: cdc_trf_state = 3;
  3573  001654  0E03               	movlw	3
  3574  001656  0100               	movlb	0	; () banked
  3575  001658  6FA2               	movwf	_cdc_trf_state& (0+255),b
  3576                           
  3577                           ;usb_device_cdc.c: 880: }
  3578  00165A  D058               	goto	l538
  3579  00165C                     l536:
  3580                           
  3581                           ; BSR set to: 0
  3582                           ;usb_device_cdc.c: 881: else if(cdc_trf_state == 1)
  3583                           
  3584                           ; BSR set to: 0
  3585  00165C  05A2               	decf	_cdc_trf_state& (0+255),w,b
  3586  00165E  A4D8               	btfss	status,2,c
  3587  001660  D055               	goto	l538
  3588                           
  3589                           ; BSR set to: 0
  3590                           ;usb_device_cdc.c: 882: {
  3591                           ;usb_device_cdc.c: 886: if(cdc_tx_len > sizeof(cdc_data_tx))
  3592  001662  0E40               	movlw	64
  3593  001664  6446               	cpfsgt	_cdc_tx_len,c
  3594  001666  D003               	goto	l539
  3595                           
  3596                           ; BSR set to: 0
  3597                           ;usb_device_cdc.c: 887: byte_to_send = sizeof(cdc_data_tx);
  3598  001668  0E40               	movlw	64
  3599  00166A  6FC1               	movwf	CDCTxService@byte_to_send& (0+255),b
  3600  00166C  D002               	goto	l540
  3601  00166E                     l539:
  3602                           
  3603                           ; BSR set to: 0
  3604                           ;usb_device_cdc.c: 888: else
  3605                           ;usb_device_cdc.c: 889: byte_to_send = cdc_tx_len;
  3606  00166E  C046  F0C1         	movff	_cdc_tx_len,CDCTxService@byte_to_send
  3607  001672                     l540:
  3608                           
  3609                           ; BSR set to: 0
  3610                           ;usb_device_cdc.c: 894: cdc_tx_len = cdc_tx_len - byte_to_send;
  3611                           
  3612                           ; BSR set to: 0
  3613  001672  51C1               	movf	CDCTxService@byte_to_send& (0+255),w,b
  3614  001674  0800               	sublw	0
  3615  001676  2446               	addwf	_cdc_tx_len,w,c
  3616  001678  6E46               	movwf	_cdc_tx_len,c
  3617                           
  3618                           ;usb_device_cdc.c: 896: pCDCDst.bRam = (uint8_t*)&cdc_data_tx;
  3619  00167A  0E00               	movlw	0
  3620  00167C  6E33               	movwf	_pCDCDst,c
  3621  00167E  0E05               	movlw	5
  3622  001680  6E34               	movwf	_pCDCDst+1,c
  3623                           
  3624                           ; BSR set to: 0
  3625                           ;usb_device_cdc.c: 898: i = byte_to_send;
  3626  001682  C0C1  F0C0         	movff	CDCTxService@byte_to_send,CDCTxService@i
  3627                           
  3628                           ; BSR set to: 0
  3629                           ;usb_device_cdc.c: 899: if(cdc_mem_type == 0x00)
  3630  001686  5045               	movf	_cdc_mem_type,w,c
  3631  001688  B4D8               	btfsc	status,2,c
  3632  00168A  D010               	goto	l542
  3633  00168C  D022               	goto	l546
  3634  00168E                     
  3635                           ; BSR set to: 0
  3636                           ;usb_device_cdc.c: 902: {
  3637                           ;usb_device_cdc.c: 903: *pCDCDst.bRam = *pCDCSrc.bRom;
  3638                           
  3639                           ; BSR set to: 0
  3640  00168E  C036  FFD9         	movff	_pCDCSrc,fsr2l
  3641  001692  C037  FFDA         	movff	_pCDCSrc+1,fsr2h
  3642  001696  C033  FFE1         	movff	_pCDCDst,fsr1l
  3643  00169A  C034  FFE2         	movff	_pCDCDst+1,fsr1h
  3644  00169E  CFDF FFE7          	movff	indf2,indf1
  3645                           
  3646                           ; BSR set to: 0
  3647                           ;usb_device_cdc.c: 904: pCDCDst.bRam++;
  3648  0016A2  4A33               	infsnz	_pCDCDst,f,c
  3649  0016A4  2A34               	incf	_pCDCDst+1,f,c
  3650                           
  3651                           ; BSR set to: 0
  3652                           ;usb_device_cdc.c: 905: pCDCSrc.bRom++;
  3653  0016A6  4A36               	infsnz	_pCDCSrc,f,c
  3654  0016A8  2A37               	incf	_pCDCSrc+1,f,c
  3655                           
  3656                           ; BSR set to: 0
  3657                           ;usb_device_cdc.c: 906: i--;
  3658  0016AA  07C0               	decf	CDCTxService@i& (0+255),f,b
  3659  0016AC                     l542:
  3660                           
  3661                           ; BSR set to: 0
  3662                           
  3663                           ; BSR set to: 0
  3664  0016AC  51C0               	movf	CDCTxService@i& (0+255),w,b
  3665  0016AE  B4D8               	btfsc	status,2,c
  3666  0016B0  D013               	goto	u4310
  3667  0016B2  D7ED               	goto	l543
  3668  0016B4                     
  3669                           ; BSR set to: 0
  3670                           ;usb_device_cdc.c: 912: {
  3671                           ;usb_device_cdc.c: 913: *pCDCDst.bRam = *pCDCSrc.bRam;
  3672                           
  3673                           ; BSR set to: 0
  3674  0016B4  C036  FFD9         	movff	_pCDCSrc,fsr2l
  3675  0016B8  C037  FFDA         	movff	_pCDCSrc+1,fsr2h
  3676  0016BC  C033  FFE1         	movff	_pCDCDst,fsr1l
  3677  0016C0  C034  FFE2         	movff	_pCDCDst+1,fsr1h
  3678  0016C4  CFDF FFE7          	movff	indf2,indf1
  3679                           
  3680                           ; BSR set to: 0
  3681                           ;usb_device_cdc.c: 914: pCDCDst.bRam++;
  3682  0016C8  4A33               	infsnz	_pCDCDst,f,c
  3683  0016CA  2A34               	incf	_pCDCDst+1,f,c
  3684                           
  3685                           ; BSR set to: 0
  3686                           ;usb_device_cdc.c: 915: pCDCSrc.bRam++;
  3687  0016CC  4A36               	infsnz	_pCDCSrc,f,c
  3688  0016CE  2A37               	incf	_pCDCSrc+1,f,c
  3689                           
  3690                           ; BSR set to: 0
  3691                           ;usb_device_cdc.c: 916: i--;
  3692  0016D0  07C0               	decf	CDCTxService@i& (0+255),f,b
  3693  0016D2                     l546:
  3694                           
  3695                           ; BSR set to: 0
  3696                           
  3697                           ; BSR set to: 0
  3698  0016D2  51C0               	movf	CDCTxService@i& (0+255),w,b
  3699  0016D4  A4D8               	btfss	status,2,c
  3700  0016D6  D7EE               	goto	l547
  3701  0016D8                     u4310:
  3702                           
  3703                           ; BSR set to: 0
  3704                           ;usb_device_cdc.c: 917: }
  3705                           ;usb_device_cdc.c: 918: }
  3706                           ;usb_device_cdc.c: 924: if(cdc_tx_len == 0)
  3707                           
  3708                           ; BSR set to: 0
  3709                           
  3710                           ; BSR set to: 0
  3711  0016D8  5046               	movf	_cdc_tx_len,w,c
  3712  0016DA  A4D8               	btfss	status,2,c
  3713  0016DC  D008               	goto	l551
  3714                           
  3715                           ; BSR set to: 0
  3716                           ;usb_device_cdc.c: 925: {
  3717                           ;usb_device_cdc.c: 926: if(byte_to_send == 0x40)
  3718  0016DE  0E40               	movlw	64
  3719  0016E0  19C1               	xorwf	CDCTxService@byte_to_send& (0+255),w,b
  3720  0016E2  A4D8               	btfss	status,2,c
  3721  0016E4  D002               	goto	l550
  3722                           
  3723                           ; BSR set to: 0
  3724                           ;usb_device_cdc.c: 927: cdc_trf_state = 2;
  3725  0016E6  0E02               	movlw	2
  3726  0016E8  D001               	goto	L1
  3727  0016EA                     l550:
  3728                           
  3729                           ; BSR set to: 0
  3730                           ;usb_device_cdc.c: 928: else
  3731                           ;usb_device_cdc.c: 929: cdc_trf_state = 3;
  3732                           
  3733                           ; BSR set to: 0
  3734  0016EA  0E03               	movlw	3
  3735  0016EC                     L1:
  3736  0016EC  6FA2               	movwf	_cdc_trf_state& (0+255),b
  3737  0016EE                     l551:
  3738                           
  3739                           ; BSR set to: 0
  3740                           ;usb_device_cdc.c: 930: }
  3741                           ;usb_device_cdc.c: 931: CDCDataInHandle = USBTransferOnePacket(0x02,1,(uint8_t*)&cdc_dat
      +                          a_tx,byte_to_send);
  3742                           
  3743                           ; BSR set to: 0
  3744                           
  3745                           ; BSR set to: 0
  3746  0016EE  0E01               	movlw	1
  3747  0016F0  6FB5               	movwf	USBTransferOnePacket@dir& (0+255),b
  3748  0016F2  0E00               	movlw	0
  3749  0016F4  6FB6               	movwf	USBTransferOnePacket@data& (0+255),b
  3750  0016F6  0E05               	movlw	5
  3751  0016F8  6FB7               	movwf	(USBTransferOnePacket@data+1)& (0+255),b
  3752  0016FA  C0C1  F0B8         	movff	CDCTxService@byte_to_send,USBTransferOnePacket@len
  3753  0016FE  0E02               	movlw	2
  3754  001700  EC0F  F00C         	call	_USBTransferOnePacket
  3755  001704  C0B5  F03B         	movff	?_USBTransferOnePacket,_CDCDataInHandle
  3756  001708  C0B6  F03C         	movff	?_USBTransferOnePacket+1,_CDCDataInHandle+1
  3757  00170C                     l538:
  3758                           
  3759                           ;usb_device_cdc.c: 933: }
  3760                           ;usb_device_cdc.c: 935: {PIE2bits.USBIE = 1;};
  3761  00170C  8AA0               	bsf	4000,5,c	;volatile
  3762  00170E  0012               	return		;funcret
  3763  001710                     __end_of_CDCTxService:
  3764                           	opt stack 0
  3765                           tblptru	equ	0xFF8
  3766                           prodh	equ	0xFF4
  3767                           prodl	equ	0xFF3
  3768                           intcon	equ	0xFF2
  3769                           postinc0	equ	0xFEE
  3770                           wreg	equ	0xFE8
  3771                           indf1	equ	0xFE7
  3772                           fsr1h	equ	0xFE2
  3773                           fsr1l	equ	0xFE1
  3774                           indf2	equ	0xFDF
  3775                           postinc2	equ	0xFDE
  3776                           postdec2	equ	0xFDD
  3777                           fsr2h	equ	0xFDA
  3778                           fsr2l	equ	0xFD9
  3779                           status	equ	0xFD8
  3780                           
  3781 ;; *************** function _USBuartReadByte *****************
  3782 ;; Defined at:
  3783 ;;		line 38 in file "usb_uart.c"
  3784 ;; Parameters:    Size  Location     Type
  3785 ;;  receivedByte    2   15[BANK0 ] PTR unsigned char 
  3786 ;;		 -> ActualizarMasterMEF@datousb(1), 
  3787 ;; Auto vars:     Size  Location     Type
  3788 ;;  numBytesRead    1   17[BANK0 ] unsigned char 
  3789 ;; Return value:  Size  Location     Type
  3790 ;;		None               void
  3791 ;; Registers used:
  3792 ;;		wreg, fsr1l, fsr1h, fsr2l, fsr2h, status,2, status,0, prodl, prodh, cstack
  3793 ;; Tracked objects:
  3794 ;;		On entry : 0/0
  3795 ;;		On exit  : 0/0
  3796 ;;		Unchanged: 0/0
  3797 ;; Data sizes:     COMRAM   BANK0   BANK1   BANK2   BANK3   BANK4   BANK5   BANK6   BANK7
  3798 ;;      Params:         0       2       0       0       0       0       0       0       0
  3799 ;;      Locals:         0       1       0       0       0       0       0       0       0
  3800 ;;      Temps:          0       0       0       0       0       0       0       0       0
  3801 ;;      Totals:         0       3       0       0       0       0       0       0       0
  3802 ;;Total ram usage:        3 bytes
  3803 ;; Hardware stack levels used:    1
  3804 ;; Hardware stack levels required when called:   12
  3805 ;; This function calls:
  3806 ;;		_getsUSBUSART
  3807 ;; This function is called by:
  3808 ;;		_ActualizarMasterMEF
  3809 ;; This function uses a non-reentrant model
  3810 ;;
  3811                           
  3812                           	psect	text15
  3813  00264C                     __ptext15:
  3814                           	opt stack 0
  3815  00264C                     _USBuartReadByte:
  3816                           	opt stack 17
  3817                           
  3818                           ;usb_uart.c: 39: uint8_t numBytesRead = 0;
  3819                           
  3820                           ;incstack = 0
  3821  00264C  0E00               	movlw	0
  3822  00264E  0100               	movlb	0	; () banked
  3823  002650  6FC6               	movwf	USBuartReadByte@numBytesRead& (0+255),b
  3824                           
  3825                           ; BSR set to: 0
  3826                           ;usb_uart.c: 41: if( USBDeviceState < CONFIGURED_STATE )
  3827  002652  0E20               	movlw	32
  3828  002654  6052               	cpfslt	_USBDeviceState,c	;volatile
  3829  002656  D002               	goto	l739
  3830                           
  3831                           ; BSR set to: 0
  3832                           ;usb_uart.c: 42: {
  3833                           ;usb_uart.c: 43: return 0;
  3834  002658  90D8               	bcf	status,0,c
  3835                           
  3836                           ; BSR set to: 0
  3837  00265A  0012               	return	
  3838  00265C                     l739:
  3839                           
  3840                           ; BSR set to: 0
  3841                           ;usb_uart.c: 44: }
  3842                           ;usb_uart.c: 46: if( UCONbits.SUSPND == 1 )
  3843  00265C  A26D               	btfss	3949,1,c	;volatile
  3844  00265E  D002               	goto	l741
  3845                           
  3846                           ; BSR set to: 0
  3847                           ;usb_uart.c: 47: {
  3848                           ;usb_uart.c: 48: return 0;
  3849  002660  90D8               	bcf	status,0,c
  3850                           
  3851                           ; BSR set to: 0
  3852  002662  0012               	return	
  3853  002664                     l741:
  3854                           
  3855                           ; BSR set to: 0
  3856                           ;usb_uart.c: 49: }
  3857                           ;usb_uart.c: 51: if( (cdc_trf_state == 0) == 1 ) {
  3858                           
  3859                           ; BSR set to: 0
  3860  002664  51A2               	movf	_cdc_trf_state& (0+255),w,b
  3861  002666  A4D8               	btfss	status,2,c
  3862  002668  D00F               	goto	l743
  3863                           
  3864                           ; BSR set to: 0
  3865                           ;usb_uart.c: 52: numBytesRead = getsUSBUSART(receivedByte, 1);
  3866  00266A  C0C4  F0C0         	movff	USBuartReadByte@receivedByte,getsUSBUSART@buffer
  3867  00266E  C0C5  F0C1         	movff	USBuartReadByte@receivedByte+1,getsUSBUSART@buffer+1
  3868  002672  0E01               	movlw	1
  3869  002674  6FC2               	movwf	getsUSBUSART@len& (0+255),b
  3870  002676  ECE8  F010         	call	_getsUSBUSART	;wreg free
  3871  00267A  0100               	movlb	0	; () banked
  3872  00267C  6FC6               	movwf	USBuartReadByte@numBytesRead& (0+255),b
  3873                           
  3874                           ; BSR set to: 0
  3875                           ;usb_uart.c: 54: if( numBytesRead > 0 )
  3876  00267E  51C6               	movf	USBuartReadByte@numBytesRead& (0+255),w,b
  3877  002680  B4D8               	btfsc	status,2,c
  3878  002682  D002               	goto	l743
  3879                           
  3880                           ; BSR set to: 0
  3881                           ;usb_uart.c: 55: {
  3882                           ;usb_uart.c: 56: return 1;
  3883  002684  80D8               	bsf	status,0,c
  3884                           
  3885                           ; BSR set to: 0
  3886  002686  0012               	return	
  3887  002688                     l743:
  3888                           
  3889                           ; BSR set to: 0
  3890                           ;usb_uart.c: 57: }
  3891                           ;usb_uart.c: 58: }
  3892                           ;usb_uart.c: 60: return 0;
  3893                           
  3894                           ; BSR set to: 0
  3895                           
  3896                           ; BSR set to: 0
  3897  002688  90D8               	bcf	status,0,c
  3898  00268A  0012               	return	
  3899  00268C                     __end_of_USBuartReadByte:
  3900                           	opt stack 0
  3901                           tblptru	equ	0xFF8
  3902                           prodh	equ	0xFF4
  3903                           prodl	equ	0xFF3
  3904                           intcon	equ	0xFF2
  3905                           postinc0	equ	0xFEE
  3906                           wreg	equ	0xFE8
  3907                           indf1	equ	0xFE7
  3908                           fsr1h	equ	0xFE2
  3909                           fsr1l	equ	0xFE1
  3910                           indf2	equ	0xFDF
  3911                           postinc2	equ	0xFDE
  3912                           postdec2	equ	0xFDD
  3913                           fsr2h	equ	0xFDA
  3914                           fsr2l	equ	0xFD9
  3915                           status	equ	0xFD8
  3916                           
  3917 ;; *************** function _getsUSBUSART *****************
  3918 ;; Defined at:
  3919 ;;		line 489 in file "usb/src/usb_device_cdc.c"
  3920 ;; Parameters:    Size  Location     Type
  3921 ;;  buffer          2   11[BANK0 ] PTR unsigned char 
  3922 ;;		 -> ActualizarMasterMEF@datousb(1), 
  3923 ;;  len             1   13[BANK0 ] unsigned char 
  3924 ;; Auto vars:     Size  Location     Type
  3925 ;;		None
  3926 ;; Return value:  Size  Location     Type
  3927 ;;                  1    wreg      unsigned char 
  3928 ;; Registers used:
  3929 ;;		wreg, fsr1l, fsr1h, fsr2l, fsr2h, status,2, status,0, prodl, prodh, cstack
  3930 ;; Tracked objects:
  3931 ;;		On entry : 0/0
  3932 ;;		On exit  : 0/0
  3933 ;;		Unchanged: 0/0
  3934 ;; Data sizes:     COMRAM   BANK0   BANK1   BANK2   BANK3   BANK4   BANK5   BANK6   BANK7
  3935 ;;      Params:         0       3       0       0       0       0       0       0       0
  3936 ;;      Locals:         0       0       0       0       0       0       0       0       0
  3937 ;;      Temps:          0       1       0       0       0       0       0       0       0
  3938 ;;      Totals:         0       4       0       0       0       0       0       0       0
  3939 ;;Total ram usage:        4 bytes
  3940 ;; Hardware stack levels used:    1
  3941 ;; Hardware stack levels required when called:   11
  3942 ;; This function calls:
  3943 ;;		_USBTransferOnePacket
  3944 ;; This function is called by:
  3945 ;;		_USBuartReadByte
  3946 ;; This function uses a non-reentrant model
  3947 ;;
  3948                           
  3949                           	psect	text16
  3950  0021D0                     __ptext16:
  3951                           	opt stack 0
  3952  0021D0                     _getsUSBUSART:
  3953                           	opt stack 17
  3954                           
  3955                           ;usb_device_cdc.c: 491: cdc_rx_len = 0;
  3956                           
  3957                           ; BSR set to: 0
  3958                           ;incstack = 0
  3959  0021D0  0E00               	movlw	0
  3960  0021D2  0100               	movlb	0	; () banked
  3961  0021D4  6FA3               	movwf	_cdc_rx_len& (0+255),b
  3962                           
  3963                           ; BSR set to: 0
  3964                           ;usb_device_cdc.c: 493: if(!((CDCDataOutHandle != 0x0000) && ((*(volatile uint8_t*)CDCDa
      +                          taOutHandle & 0x80) != 0x00)))
  3965  0021D6  519C               	movf	_CDCDataOutHandle& (0+255),w,b
  3966  0021D8  119D               	iorwf	(_CDCDataOutHandle+1)& (0+255),w,b
  3967  0021DA  B4D8               	btfsc	status,2,c
  3968  0021DC  D006               	goto	u4180
  3969                           
  3970                           ; BSR set to: 0
  3971  0021DE  C09C  FFD9         	movff	_CDCDataOutHandle,fsr2l
  3972  0021E2  C09D  FFDA         	movff	_CDCDataOutHandle+1,fsr2h
  3973  0021E6  BEDF               	btfsc	indf2,7,c
  3974  0021E8  D03B               	goto	l504
  3975  0021EA                     u4180:
  3976                           
  3977                           ; BSR set to: 0
  3978                           ;usb_device_cdc.c: 494: {
  3979                           ;usb_device_cdc.c: 499: if(len > (((volatile BDT_ENTRY*)CDCDataOutHandle)->CNT))
  3980                           
  3981                           ; BSR set to: 0
  3982  0021EA  EE20 F001          	lfsr	2,1
  3983  0021EE  519C               	movf	_CDCDataOutHandle& (0+255),w,b
  3984  0021F0  26D9               	addwf	fsr2l,f,c
  3985  0021F2  519D               	movf	(_CDCDataOutHandle+1)& (0+255),w,b
  3986  0021F4  22DA               	addwfc	fsr2h,f,c
  3987  0021F6  51C2               	movf	getsUSBUSART@len& (0+255),w,b
  3988  0021F8  5CDE               	subwf	postinc2,w,c
  3989  0021FA  B0D8               	btfsc	status,0,c
  3990  0021FC  D008               	goto	l507
  3991                           
  3992                           ; BSR set to: 0
  3993                           ;usb_device_cdc.c: 500: len = (((volatile BDT_ENTRY*)CDCDataOutHandle)->CNT);
  3994  0021FE  EE20 F001          	lfsr	2,1
  3995  002202  519C               	movf	_CDCDataOutHandle& (0+255),w,b
  3996  002204  26D9               	addwf	fsr2l,f,c
  3997  002206  519D               	movf	(_CDCDataOutHandle+1)& (0+255),w,b
  3998  002208  22DA               	addwfc	fsr2h,f,c
  3999  00220A  50DF               	movf	indf2,w,c
  4000  00220C  6FC2               	movwf	getsUSBUSART@len& (0+255),b
  4001  00220E                     l507:
  4002                           
  4003                           ; BSR set to: 0
  4004                           ;usb_device_cdc.c: 505: for(cdc_rx_len = 0; cdc_rx_len < len; cdc_rx_len++)
  4005                           
  4006                           ; BSR set to: 0
  4007  00220E  0E00               	movlw	0
  4008  002210  6FA3               	movwf	_cdc_rx_len& (0+255),b
  4009  002212  D013               	goto	l508
  4010  002214                     
  4011                           ; BSR set to: 0
  4012                           ;usb_device_cdc.c: 506: buffer[cdc_rx_len] = cdc_data_rx[cdc_rx_len];
  4013                           
  4014                           ; BSR set to: 0
  4015  002214  51A3               	movf	_cdc_rx_len& (0+255),w,b
  4016  002216  0D01               	mullw	1
  4017  002218  0E40               	movlw	64
  4018  00221A  24F3               	addwf	prodl,w,c
  4019  00221C  6ED9               	movwf	fsr2l,c
  4020  00221E  0E05               	movlw	5
  4021  002220  20F4               	addwfc	prodh,w,c
  4022  002222  6EDA               	movwf	fsr2h,c
  4023  002224  51A3               	movf	_cdc_rx_len& (0+255),w,b
  4024  002226  0D01               	mullw	1
  4025  002228  50F3               	movf	prodl,w,c
  4026  00222A  25C0               	addwf	getsUSBUSART@buffer& (0+255),w,b
  4027  00222C  6EE1               	movwf	fsr1l,c
  4028  00222E  50F4               	movf	prodh,w,c
  4029  002230  21C1               	addwfc	(getsUSBUSART@buffer+1)& (0+255),w,b
  4030  002232  6EE2               	movwf	fsr1h,c
  4031  002234  CFDF FFE7          	movff	indf2,indf1
  4032                           
  4033                           ; BSR set to: 0
  4034  002238  2BA3               	incf	_cdc_rx_len& (0+255),f,b
  4035  00223A                     l508:
  4036                           
  4037                           ; BSR set to: 0
  4038                           
  4039                           ; BSR set to: 0
  4040  00223A  51C2               	movf	getsUSBUSART@len& (0+255),w,b
  4041  00223C  5DA3               	subwf	_cdc_rx_len& (0+255),w,b
  4042  00223E  A0D8               	btfss	status,0,c
  4043  002240  D7E9               	goto	l509
  4044                           
  4045                           ; BSR set to: 0
  4046                           ;usb_device_cdc.c: 512: CDCDataOutHandle = USBTransferOnePacket(0x02,0,(uint8_t*)&cdc_da
      +                          ta_rx,sizeof(cdc_data_rx));
  4047                           
  4048                           ; BSR set to: 0
  4049  002242  0E00               	movlw	0
  4050  002244  6FB5               	movwf	USBTransferOnePacket@dir& (0+255),b
  4051  002246  0E40               	movlw	64
  4052  002248  6FB6               	movwf	USBTransferOnePacket@data& (0+255),b
  4053  00224A  0E05               	movlw	5
  4054  00224C  6FB7               	movwf	(USBTransferOnePacket@data+1)& (0+255),b
  4055  00224E  0E40               	movlw	64
  4056  002250  6FB8               	movwf	USBTransferOnePacket@len& (0+255),b
  4057  002252  0E02               	movlw	2
  4058  002254  EC0F  F00C         	call	_USBTransferOnePacket
  4059  002258  C0B5  F09C         	movff	?_USBTransferOnePacket,_CDCDataOutHandle
  4060  00225C  C0B6  F09D         	movff	?_USBTransferOnePacket+1,_CDCDataOutHandle+1
  4061  002260                     l504:
  4062                           
  4063                           ;usb_device_cdc.c: 514: }
  4064                           ;usb_device_cdc.c: 516: return cdc_rx_len;
  4065  002260  0100               	movlb	0	; () banked
  4066  002262  51A3               	movf	_cdc_rx_len& (0+255),w,b
  4067  002264  0012               	return	
  4068  002266                     __end_of_getsUSBUSART:
  4069                           	opt stack 0
  4070                           tblptru	equ	0xFF8
  4071                           prodh	equ	0xFF4
  4072                           prodl	equ	0xFF3
  4073                           intcon	equ	0xFF2
  4074                           postinc0	equ	0xFEE
  4075                           wreg	equ	0xFE8
  4076                           indf1	equ	0xFE7
  4077                           fsr1h	equ	0xFE2
  4078                           fsr1l	equ	0xFE1
  4079                           indf2	equ	0xFDF
  4080                           postinc2	equ	0xFDE
  4081                           postdec2	equ	0xFDD
  4082                           fsr2h	equ	0xFDA
  4083                           fsr2l	equ	0xFD9
  4084                           status	equ	0xFD8
  4085                           
  4086 ;; *************** function _USBTransferOnePacket *****************
  4087 ;; Defined at:
  4088 ;;		line 995 in file "usb/src/usb_device.c"
  4089 ;; Parameters:    Size  Location     Type
  4090 ;;  ep              1    wreg     unsigned char 
  4091 ;;  dir             1    0[BANK0 ] unsigned char 
  4092 ;;  data            2    1[BANK0 ] PTR unsigned char 
  4093 ;;		 -> cdc_data_tx(64), cdc_data_rx(64), NULL(0), 
  4094 ;;  len             1    3[BANK0 ] unsigned char 
  4095 ;; Auto vars:     Size  Location     Type
  4096 ;;  ep              1    8[BANK0 ] unsigned char 
  4097 ;;  handle          2    9[BANK0 ] PTR volatile struct __BD
  4098 ;;		 -> RAM(2047), NULL(0), BDT(64), 
  4099 ;; Return value:  Size  Location     Type
  4100 ;;                  2    0[BANK0 ] PTR void 
  4101 ;; Registers used:
  4102 ;;		wreg, fsr2l, fsr2h, status,2, status,0, prodl, prodh
  4103 ;; Tracked objects:
  4104 ;;		On entry : 0/0
  4105 ;;		On exit  : 0/0
  4106 ;;		Unchanged: 0/0
  4107 ;; Data sizes:     COMRAM   BANK0   BANK1   BANK2   BANK3   BANK4   BANK5   BANK6   BANK7
  4108 ;;      Params:         0       4       0       0       0       0       0       0       0
  4109 ;;      Locals:         0       3       0       0       0       0       0       0       0
  4110 ;;      Temps:          0       4       0       0       0       0       0       0       0
  4111 ;;      Totals:         0      11       0       0       0       0       0       0       0
  4112 ;;Total ram usage:       11 bytes
  4113 ;; Hardware stack levels used:    1
  4114 ;; Hardware stack levels required when called:   10
  4115 ;; This function calls:
  4116 ;;		Nothing
  4117 ;; This function is called by:
  4118 ;;		_getsUSBUSART
  4119 ;;		_CDCTxService
  4120 ;;		_USBCDCEventHandler
  4121 ;; This function uses a non-reentrant model
  4122 ;;
  4123                           
  4124                           	psect	text17
  4125  00181E                     __ptext17:
  4126                           	opt stack 0
  4127  00181E                     _USBTransferOnePacket:
  4128                           	opt stack 17
  4129                           
  4130                           ; BSR set to: 0
  4131                           ;incstack = 0
  4132                           ;USBTransferOnePacket@ep stored from wreg
  4133  00181E  0100               	movlb	0	; () banked
  4134  001820  6FBD               	movwf	USBTransferOnePacket@ep& (0+255),b
  4135                           
  4136                           ;usb_device.c: 997: volatile BDT_ENTRY* handle;
  4137                           ;usb_device.c: 1000: if(dir != 0)
  4138  001822  0100               	movlb	0	; () banked
  4139  001824  51B5               	movf	USBTransferOnePacket@dir& (0+255),w,b
  4140  001826  B4D8               	btfsc	status,2,c
  4141  001828  D007               	goto	l213
  4142                           
  4143                           ; BSR set to: 0
  4144                           ;usb_device.c: 1001: {
  4145                           ;usb_device.c: 1003: handle = pBDTEntryIn[ep];
  4146  00182A  51BD               	movf	USBTransferOnePacket@ep& (0+255),w,b
  4147  00182C  0D02               	mullw	2
  4148  00182E  0E72               	movlw	low _pBDTEntryIn
  4149  001830  24F3               	addwf	prodl,w,c
  4150  001832  6ED9               	movwf	fsr2l,c
  4151  001834  0E00               	movlw	high _pBDTEntryIn
  4152  001836  D006               	goto	L2
  4153  001838                     l213:
  4154                           
  4155                           ; BSR set to: 0
  4156                           ;usb_device.c: 1005: else
  4157                           ;usb_device.c: 1006: {
  4158                           ;usb_device.c: 1008: handle = pBDTEntryOut[ep];
  4159                           
  4160                           ; BSR set to: 0
  4161  001838  51BD               	movf	USBTransferOnePacket@ep& (0+255),w,b
  4162  00183A  0D02               	mullw	2
  4163  00183C  0E7A               	movlw	low _pBDTEntryOut
  4164  00183E  24F3               	addwf	prodl,w,c
  4165  001840  6ED9               	movwf	fsr2l,c
  4166  001842  0E00               	movlw	high _pBDTEntryOut
  4167  001844                     L2:
  4168  001844  20F4               	addwfc	prodh,w,c
  4169  001846  6EDA               	movwf	fsr2h,c
  4170  001848  CFDE F0BE          	movff	postinc2,USBTransferOnePacket@handle
  4171  00184C  CFDD F0BF          	movff	postdec2,USBTransferOnePacket@handle+1
  4172                           
  4173                           ; BSR set to: 0
  4174                           ;usb_device.c: 1009: }
  4175                           ;usb_device.c: 1013: if(handle == 0)
  4176                           
  4177                           ; BSR set to: 0
  4178  001850  51BE               	movf	USBTransferOnePacket@handle& (0+255),w,b
  4179  001852  11BF               	iorwf	(USBTransferOnePacket@handle+1)& (0+255),w,b
  4180  001854  A4D8               	btfss	status,2,c
  4181  001856  D005               	goto	l215
  4182                           
  4183                           ; BSR set to: 0
  4184                           ;usb_device.c: 1014: {
  4185                           ;usb_device.c: 1015: return 0;
  4186  001858  0E00               	movlw	0
  4187  00185A  6FB5               	movwf	?_USBTransferOnePacket& (0+255),b
  4188  00185C  0E00               	movlw	0
  4189  00185E  6FB6               	movwf	(?_USBTransferOnePacket+1)& (0+255),b
  4190                           
  4191                           ; BSR set to: 0
  4192  001860  0012               	return	
  4193  001862                     l215:
  4194                           
  4195                           ; BSR set to: 0
  4196                           ;usb_device.c: 1016: }
  4197                           ;usb_device.c: 1029: handle->ADR = ((uint16_t)(data));
  4198                           
  4199                           ; BSR set to: 0
  4200  001862  EE20 F002          	lfsr	2,2
  4201  001866  51BE               	movf	USBTransferOnePacket@handle& (0+255),w,b
  4202  001868  26D9               	addwf	fsr2l,f,c
  4203  00186A  51BF               	movf	(USBTransferOnePacket@handle+1)& (0+255),w,b
  4204  00186C  22DA               	addwfc	fsr2h,f,c
  4205  00186E  C0B6  FFDE         	movff	USBTransferOnePacket@data,postinc2
  4206  001872  C0B7  FFDD         	movff	USBTransferOnePacket@data+1,postdec2
  4207                           
  4208                           ;usb_device.c: 1030: handle->CNT = len;
  4209  001876  EE20 F001          	lfsr	2,1
  4210  00187A  51BE               	movf	USBTransferOnePacket@handle& (0+255),w,b
  4211  00187C  26D9               	addwf	fsr2l,f,c
  4212  00187E  51BF               	movf	(USBTransferOnePacket@handle+1)& (0+255),w,b
  4213  001880  22DA               	addwfc	fsr2h,f,c
  4214  001882  C0B8  FFDF         	movff	USBTransferOnePacket@len,indf2
  4215                           
  4216                           ; BSR set to: 0
  4217                           ;usb_device.c: 1031: handle->STAT.Val &= 0x40;
  4218  001886  C0BE  FFD9         	movff	USBTransferOnePacket@handle,fsr2l
  4219  00188A  C0BF  FFDA         	movff	USBTransferOnePacket@handle+1,fsr2h
  4220  00188E  0E40               	movlw	64
  4221  001890  16DF               	andwf	indf2,f,c
  4222                           
  4223                           ; BSR set to: 0
  4224                           ;usb_device.c: 1032: handle->STAT.Val |= (0x08 & 0x08);
  4225  001892  C0BE  FFD9         	movff	USBTransferOnePacket@handle,fsr2l
  4226  001896  C0BF  FFDA         	movff	USBTransferOnePacket@handle+1,fsr2h
  4227  00189A  0E00               	movlw	0
  4228  00189C  86DB               	bsf	plusw2,3,c
  4229                           
  4230                           ; BSR set to: 0
  4231                           ;usb_device.c: 1033: handle->STAT.Val |= 0x80;
  4232  00189E  C0BE  FFD9         	movff	USBTransferOnePacket@handle,fsr2l
  4233  0018A2  C0BF  FFDA         	movff	USBTransferOnePacket@handle+1,fsr2h
  4234  0018A6  0E00               	movlw	0
  4235  0018A8  8EDB               	bsf	plusw2,7,c
  4236                           
  4237                           ; BSR set to: 0
  4238                           ;usb_device.c: 1036: if(dir != 0)
  4239  0018AA  51B5               	movf	USBTransferOnePacket@dir& (0+255),w,b
  4240  0018AC  B4D8               	btfsc	status,2,c
  4241  0018AE  D018               	goto	l217
  4242                           
  4243                           ; BSR set to: 0
  4244                           ;usb_device.c: 1037: {
  4245                           ;usb_device.c: 1039: pBDTEntryIn[ep] = (BDT_ENTRY*)(((uintptr_t)pBDTEntryIn[ep]) ^ 0x000
      +                          4);
  4246  0018B0  51BD               	movf	USBTransferOnePacket@ep& (0+255),w,b
  4247  0018B2  0D02               	mullw	2
  4248  0018B4  0E72               	movlw	low _pBDTEntryIn
  4249  0018B6  24F3               	addwf	prodl,w,c
  4250  0018B8  6ED9               	movwf	fsr2l,c
  4251  0018BA  0E00               	movlw	high _pBDTEntryIn
  4252  0018BC  20F4               	addwfc	prodh,w,c
  4253  0018BE  6EDA               	movwf	fsr2h,c
  4254  0018C0  CFDE F0B9          	movff	postinc2,??_USBTransferOnePacket
  4255  0018C4  CFDD F0BA          	movff	postdec2,??_USBTransferOnePacket+1
  4256  0018C8  0E04               	movlw	4
  4257  0018CA  19B9               	xorwf	??_USBTransferOnePacket& (0+255),w,b
  4258  0018CC  6FBB               	movwf	(??_USBTransferOnePacket+2)& (0+255),b
  4259  0018CE  51BA               	movf	(??_USBTransferOnePacket+1)& (0+255),w,b
  4260  0018D0  6FBC               	movwf	(??_USBTransferOnePacket+3)& (0+255),b
  4261  0018D2  51BD               	movf	USBTransferOnePacket@ep& (0+255),w,b
  4262  0018D4  0D02               	mullw	2
  4263  0018D6  0E72               	movlw	low _pBDTEntryIn
  4264  0018D8  24F3               	addwf	prodl,w,c
  4265  0018DA  6ED9               	movwf	fsr2l,c
  4266  0018DC  0E00               	movlw	high _pBDTEntryIn
  4267  0018DE  D017               	goto	L3
  4268  0018E0                     l217:
  4269                           
  4270                           ; BSR set to: 0
  4271                           ;usb_device.c: 1041: else
  4272                           ;usb_device.c: 1042: {
  4273                           ;usb_device.c: 1044: pBDTEntryOut[ep] = (BDT_ENTRY*)(((uintptr_t)pBDTEntryOut[ep]) ^ 0x0
      +                          004);
  4274                           
  4275                           ; BSR set to: 0
  4276  0018E0  51BD               	movf	USBTransferOnePacket@ep& (0+255),w,b
  4277  0018E2  0D02               	mullw	2
  4278  0018E4  0E7A               	movlw	low _pBDTEntryOut
  4279  0018E6  24F3               	addwf	prodl,w,c
  4280  0018E8  6ED9               	movwf	fsr2l,c
  4281  0018EA  0E00               	movlw	high _pBDTEntryOut
  4282  0018EC  20F4               	addwfc	prodh,w,c
  4283  0018EE  6EDA               	movwf	fsr2h,c
  4284  0018F0  CFDE F0B9          	movff	postinc2,??_USBTransferOnePacket
  4285  0018F4  CFDD F0BA          	movff	postdec2,??_USBTransferOnePacket+1
  4286  0018F8  0E04               	movlw	4
  4287  0018FA  19B9               	xorwf	??_USBTransferOnePacket& (0+255),w,b
  4288  0018FC  6FBB               	movwf	(??_USBTransferOnePacket+2)& (0+255),b
  4289  0018FE  51BA               	movf	(??_USBTransferOnePacket+1)& (0+255),w,b
  4290  001900  6FBC               	movwf	(??_USBTransferOnePacket+3)& (0+255),b
  4291  001902  51BD               	movf	USBTransferOnePacket@ep& (0+255),w,b
  4292  001904  0D02               	mullw	2
  4293  001906  0E7A               	movlw	low _pBDTEntryOut
  4294  001908  24F3               	addwf	prodl,w,c
  4295  00190A  6ED9               	movwf	fsr2l,c
  4296  00190C  0E00               	movlw	high _pBDTEntryOut
  4297  00190E                     L3:
  4298  00190E  20F4               	addwfc	prodh,w,c
  4299  001910  6EDA               	movwf	fsr2h,c
  4300  001912  C0BB  FFDE         	movff	??_USBTransferOnePacket+2,postinc2
  4301  001916  C0BC  FFDD         	movff	??_USBTransferOnePacket+3,postdec2
  4302                           
  4303                           ; BSR set to: 0
  4304                           ;usb_device.c: 1045: }
  4305                           ;usb_device.c: 1046: return (void*)handle;
  4306                           
  4307                           ; BSR set to: 0
  4308  00191A  C0BE  F0B5         	movff	USBTransferOnePacket@handle,?_USBTransferOnePacket
  4309  00191E  C0BF  F0B6         	movff	USBTransferOnePacket@handle+1,?_USBTransferOnePacket+1
  4310  001922  0012               	return	
  4311  001924                     __end_of_USBTransferOnePacket:
  4312                           	opt stack 0
  4313                           tblptru	equ	0xFF8
  4314                           prodh	equ	0xFF4
  4315                           prodl	equ	0xFF3
  4316                           intcon	equ	0xFF2
  4317                           postinc0	equ	0xFEE
  4318                           wreg	equ	0xFE8
  4319                           indf1	equ	0xFE7
  4320                           fsr1h	equ	0xFE2
  4321                           fsr1l	equ	0xFE1
  4322                           indf2	equ	0xFDF
  4323                           postinc2	equ	0xFDE
  4324                           postdec2	equ	0xFDD
  4325                           plusw2	equ	0xFDB
  4326                           fsr2h	equ	0xFDA
  4327                           fsr2l	equ	0xFD9
  4328                           status	equ	0xFD8
  4329                           
  4330 ;; *************** function _TxMode *****************
  4331 ;; Defined at:
  4332 ;;		line 226 in file "user.c"
  4333 ;; Parameters:    Size  Location     Type
  4334 ;;		None
  4335 ;; Auto vars:     Size  Location     Type
  4336 ;;		None
  4337 ;; Return value:  Size  Location     Type
  4338 ;;                  1    wreg      void 
  4339 ;; Registers used:
  4340 ;;		None
  4341 ;; Tracked objects:
  4342 ;;		On entry : 0/0
  4343 ;;		On exit  : 0/0
  4344 ;;		Unchanged: 0/0
  4345 ;; Data sizes:     COMRAM   BANK0   BANK1   BANK2   BANK3   BANK4   BANK5   BANK6   BANK7
  4346 ;;      Params:         0       0       0       0       0       0       0       0       0
  4347 ;;      Locals:         0       0       0       0       0       0       0       0       0
  4348 ;;      Temps:          0       0       0       0       0       0       0       0       0
  4349 ;;      Totals:         0       0       0       0       0       0       0       0       0
  4350 ;;Total ram usage:        0 bytes
  4351 ;; Hardware stack levels used:    1
  4352 ;; Hardware stack levels required when called:   10
  4353 ;; This function calls:
  4354 ;;		Nothing
  4355 ;; This function is called by:
  4356 ;;		_ActualizarMasterMEF
  4357 ;; This function uses a non-reentrant model
  4358 ;;
  4359                           
  4360                           	psect	text18
  4361  0028EE                     __ptext18:
  4362                           	opt stack 0
  4363  0028EE                     _TxMode:
  4364                           	opt stack 19
  4365                           
  4366                           ;user.c: 227: PORTCbits.RC0=0;
  4367                           
  4368                           ; BSR set to: 0
  4369                           ;incstack = 0
  4370  0028EE  9082               	bcf	3970,0,c	;volatile
  4371                           
  4372                           ;user.c: 228: PORTCbits.RC1=1;
  4373  0028F0  8282               	bsf	3970,1,c	;volatile
  4374  0028F2  0012               	return		;funcret
  4375  0028F4                     __end_of_TxMode:
  4376                           	opt stack 0
  4377                           tblptru	equ	0xFF8
  4378                           prodh	equ	0xFF4
  4379                           prodl	equ	0xFF3
  4380                           intcon	equ	0xFF2
  4381                           postinc0	equ	0xFEE
  4382                           wreg	equ	0xFE8
  4383                           indf1	equ	0xFE7
  4384                           fsr1h	equ	0xFE2
  4385                           fsr1l	equ	0xFE1
  4386                           indf2	equ	0xFDF
  4387                           postinc2	equ	0xFDE
  4388                           postdec2	equ	0xFDD
  4389                           plusw2	equ	0xFDB
  4390                           fsr2h	equ	0xFDA
  4391                           fsr2l	equ	0xFD9
  4392                           status	equ	0xFD8
  4393                           
  4394 ;; *************** function _RxMode *****************
  4395 ;; Defined at:
  4396 ;;		line 231 in file "user.c"
  4397 ;; Parameters:    Size  Location     Type
  4398 ;;		None
  4399 ;; Auto vars:     Size  Location     Type
  4400 ;;		None
  4401 ;; Return value:  Size  Location     Type
  4402 ;;                  1    wreg      void 
  4403 ;; Registers used:
  4404 ;;		None
  4405 ;; Tracked objects:
  4406 ;;		On entry : 0/0
  4407 ;;		On exit  : 0/0
  4408 ;;		Unchanged: 0/0
  4409 ;; Data sizes:     COMRAM   BANK0   BANK1   BANK2   BANK3   BANK4   BANK5   BANK6   BANK7
  4410 ;;      Params:         0       0       0       0       0       0       0       0       0
  4411 ;;      Locals:         0       0       0       0       0       0       0       0       0
  4412 ;;      Temps:          0       0       0       0       0       0       0       0       0
  4413 ;;      Totals:         0       0       0       0       0       0       0       0       0
  4414 ;;Total ram usage:        0 bytes
  4415 ;; Hardware stack levels used:    1
  4416 ;; Hardware stack levels required when called:   10
  4417 ;; This function calls:
  4418 ;;		Nothing
  4419 ;; This function is called by:
  4420 ;;		_ActualizarMasterMEF
  4421 ;; This function uses a non-reentrant model
  4422 ;;
  4423                           
  4424                           	psect	text19
  4425  0028F4                     __ptext19:
  4426                           	opt stack 0
  4427  0028F4                     _RxMode:
  4428                           	opt stack 19
  4429                           
  4430                           ;user.c: 232: PORTCbits.RC0=0;
  4431                           
  4432                           ;incstack = 0
  4433  0028F4  9082               	bcf	3970,0,c	;volatile
  4434                           
  4435                           ;user.c: 233: PORTCbits.RC1=0;
  4436  0028F6  9282               	bcf	3970,1,c	;volatile
  4437  0028F8  0012               	return		;funcret
  4438  0028FA                     __end_of_RxMode:
  4439                           	opt stack 0
  4440                           tblptru	equ	0xFF8
  4441                           prodh	equ	0xFF4
  4442                           prodl	equ	0xFF3
  4443                           intcon	equ	0xFF2
  4444                           postinc0	equ	0xFEE
  4445                           wreg	equ	0xFE8
  4446                           indf1	equ	0xFE7
  4447                           fsr1h	equ	0xFE2
  4448                           fsr1l	equ	0xFE1
  4449                           indf2	equ	0xFDF
  4450                           postinc2	equ	0xFDE
  4451                           postdec2	equ	0xFDD
  4452                           plusw2	equ	0xFDB
  4453                           fsr2h	equ	0xFDA
  4454                           fsr2l	equ	0xFD9
  4455                           status	equ	0xFD8
  4456                           
  4457 ;; *************** function _isr *****************
  4458 ;; Defined at:
  4459 ;;		line 36 in file "interrupts.c"
  4460 ;; Parameters:    Size  Location     Type
  4461 ;;		None
  4462 ;; Auto vars:     Size  Location     Type
  4463 ;;		None
  4464 ;; Return value:  Size  Location     Type
  4465 ;;                  1    wreg      void 
  4466 ;; Registers used:
  4467 ;;		wreg, fsr1l, fsr1h, fsr2l, fsr2h, status,2, status,0, tblptrl, tblptrh, tblptru, prodl, prodh, cstack
  4468 ;; Tracked objects:
  4469 ;;		On entry : 0/0
  4470 ;;		On exit  : 0/0
  4471 ;;		Unchanged: 0/0
  4472 ;; Data sizes:     COMRAM   BANK0   BANK1   BANK2   BANK3   BANK4   BANK5   BANK6   BANK7
  4473 ;;      Params:         0       0       0       0       0       0       0       0       0
  4474 ;;      Locals:         0       0       0       0       0       0       0       0       0
  4475 ;;      Temps:         18       0       0       0       0       0       0       0       0
  4476 ;;      Totals:        18       0       0       0       0       0       0       0       0
  4477 ;;Total ram usage:       18 bytes
  4478 ;; Hardware stack levels used:    1
  4479 ;; Hardware stack levels required when called:    9
  4480 ;; This function calls:
  4481 ;;		_USBDeviceTasks
  4482 ;; This function is called by:
  4483 ;;		Interrupt level 2
  4484 ;; This function uses a non-reentrant model
  4485 ;;
  4486                           
  4487                           	psect	intcode
  4488  000008                     __pintcode:
  4489                           	opt stack 0
  4490  000008                     _isr:
  4491                           	opt stack 17
  4492                           
  4493                           ;incstack = 0
  4494  000008  825C               	bsf	btemp,1,c	;set compiler interrupt flag (level 2)
  4495  00000A  EDEE  F00F         	call	int_func,f	;refresh shadow registers
  4496                           tblptru	equ	0xFF8
  4497                           prodh	equ	0xFF4
  4498                           prodl	equ	0xFF3
  4499                           intcon	equ	0xFF2
  4500                           postinc0	equ	0xFEE
  4501                           wreg	equ	0xFE8
  4502                           indf1	equ	0xFE7
  4503                           fsr1h	equ	0xFE2
  4504                           fsr1l	equ	0xFE1
  4505                           indf2	equ	0xFDF
  4506                           postinc2	equ	0xFDE
  4507                           postdec2	equ	0xFDD
  4508                           plusw2	equ	0xFDB
  4509                           fsr2h	equ	0xFDA
  4510                           fsr2l	equ	0xFD9
  4511                           status	equ	0xFD8
  4512                           
  4513                           	psect	intcode_body
  4514  001FDC                     __pintcode_body:
  4515                           	opt stack 17
  4516  001FDC                     int_func:
  4517                           	opt stack 17
  4518  001FDC  0006               	pop		; remove dummy address from shadow register refresh
  4519  001FDE  CFFA F01D          	movff	pclath,??_isr
  4520  001FE2  CFFB F01E          	movff	pclatu,??_isr+1
  4521  001FE6  CFE9 F01F          	movff	fsr0l,??_isr+2
  4522  001FEA  CFEA F020          	movff	fsr0h,??_isr+3
  4523  001FEE  CFE1 F021          	movff	fsr1l,??_isr+4
  4524  001FF2  CFE2 F022          	movff	fsr1h,??_isr+5
  4525  001FF6  CFD9 F023          	movff	fsr2l,??_isr+6
  4526  001FFA  CFDA F024          	movff	fsr2h,??_isr+7
  4527  001FFE  CFF3 F025          	movff	prodl,??_isr+8
  4528  002002  CFF4 F026          	movff	prodh,??_isr+9
  4529  002006  CFF6 F027          	movff	tblptrl,??_isr+10
  4530  00200A  CFF7 F028          	movff	tblptrh,??_isr+11
  4531  00200E  CFF8 F029          	movff	tblptru,??_isr+12
  4532  002012  CFF5 F02A          	movff	tablat,??_isr+13
  4533  002016  C05C  F02B         	movff	btemp,??_isr+14
  4534  00201A  C05D  F02C         	movff	btemp+1,??_isr+15
  4535  00201E  C05E  F02D         	movff	btemp+2,??_isr+16
  4536  002022  C05F  F02E         	movff	btemp+3,??_isr+17
  4537                           
  4538                           ;interrupts.c: 43: if(TMR0IF) {
  4539  002026  A4F2               	btfss	intcon,2,c	;volatile
  4540  002028  D008               	goto	i2l589
  4541                           
  4542                           ;interrupts.c: 45: TMR0IF = 0;
  4543  00202A  94F2               	bcf	intcon,2,c	;volatile
  4544                           
  4545                           ;interrupts.c: 46: TMR0 += 7;
  4546  00202C  0E07               	movlw	7
  4547  00202E  26D6               	addwf	4054,f,c	;volatile
  4548  002030  0E00               	movlw	0
  4549  002032  22D7               	addwfc	4055,f,c	;volatile
  4550                           
  4551                           ;interrupts.c: 47: tickCounter++;
  4552  002034  4A39               	infsnz	_tickCounter,f,c	;volatile
  4553  002036  2A3A               	incf	_tickCounter+1,f,c	;volatile
  4554                           
  4555                           ;interrupts.c: 50: }
  4556  002038  D002               	goto	i2l590
  4557  00203A                     i2l589:
  4558                           
  4559                           ;interrupts.c: 51: else{
  4560                           ;interrupts.c: 52: USBDeviceTasks();
  4561  00203A  ECD0  F009         	call	_USBDeviceTasks	;wreg free
  4562  00203E                     i2l590:
  4563  00203E  C02E  F05F         	movff	??_isr+17,btemp+3
  4564  002042  C02D  F05E         	movff	??_isr+16,btemp+2
  4565  002046  C02C  F05D         	movff	??_isr+15,btemp+1
  4566  00204A  C02B  F05C         	movff	??_isr+14,btemp
  4567  00204E  C02A  FFF5         	movff	??_isr+13,tablat
  4568  002052  C029  FFF8         	movff	??_isr+12,tblptru
  4569  002056  C028  FFF7         	movff	??_isr+11,tblptrh
  4570  00205A  C027  FFF6         	movff	??_isr+10,tblptrl
  4571  00205E  C026  FFF4         	movff	??_isr+9,prodh
  4572  002062  C025  FFF3         	movff	??_isr+8,prodl
  4573  002066  C024  FFDA         	movff	??_isr+7,fsr2h
  4574  00206A  C023  FFD9         	movff	??_isr+6,fsr2l
  4575  00206E  C022  FFE2         	movff	??_isr+5,fsr1h
  4576  002072  C021  FFE1         	movff	??_isr+4,fsr1l
  4577  002076  C020  FFEA         	movff	??_isr+3,fsr0h
  4578  00207A  C01F  FFE9         	movff	??_isr+2,fsr0l
  4579  00207E  C01E  FFFB         	movff	??_isr+1,pclatu
  4580  002082  C01D  FFFA         	movff	??_isr,pclath
  4581  002086  925C               	bcf	btemp,1,c	;clear compiler interrupt flag (level 2)
  4582  002088  0011               	retfie		f
  4583  00208A                     __end_of_isr:
  4584                           	opt stack 0
  4585                           pclatu	equ	0xFFB
  4586                           pclath	equ	0xFFA
  4587                           tblptru	equ	0xFF8
  4588                           tblptrh	equ	0xFF7
  4589                           tblptrl	equ	0xFF6
  4590                           tablat	equ	0xFF5
  4591                           prodh	equ	0xFF4
  4592                           prodl	equ	0xFF3
  4593                           intcon	equ	0xFF2
  4594                           postinc0	equ	0xFEE
  4595                           fsr0h	equ	0xFEA
  4596                           fsr0l	equ	0xFE9
  4597                           wreg	equ	0xFE8
  4598                           indf1	equ	0xFE7
  4599                           fsr1h	equ	0xFE2
  4600                           fsr1l	equ	0xFE1
  4601                           indf2	equ	0xFDF
  4602                           postinc2	equ	0xFDE
  4603                           postdec2	equ	0xFDD
  4604                           plusw2	equ	0xFDB
  4605                           fsr2h	equ	0xFDA
  4606                           fsr2l	equ	0xFD9
  4607                           status	equ	0xFD8
  4608                           
  4609 ;; *************** function _USBDeviceTasks *****************
  4610 ;; Defined at:
  4611 ;;		line 477 in file "usb/src/usb_device.c"
  4612 ;; Parameters:    Size  Location     Type
  4613 ;;		None
  4614 ;; Auto vars:     Size  Location     Type
  4615 ;;  i               1   27[COMRAM] unsigned char 
  4616 ;; Return value:  Size  Location     Type
  4617 ;;                  1    wreg      void 
  4618 ;; Registers used:
  4619 ;;		wreg, fsr1l, fsr1h, fsr2l, fsr2h, status,2, status,0, tblptrl, tblptrh, tblptru, prodl, prodh, cstack
  4620 ;; Tracked objects:
  4621 ;;		On entry : 0/0
  4622 ;;		On exit  : 0/0
  4623 ;;		Unchanged: 0/0
  4624 ;; Data sizes:     COMRAM   BANK0   BANK1   BANK2   BANK3   BANK4   BANK5   BANK6   BANK7
  4625 ;;      Params:         0       0       0       0       0       0       0       0       0
  4626 ;;      Locals:         1       0       0       0       0       0       0       0       0
  4627 ;;      Temps:          0       0       0       0       0       0       0       0       0
  4628 ;;      Totals:         1       0       0       0       0       0       0       0       0
  4629 ;;Total ram usage:        1 bytes
  4630 ;; Hardware stack levels used:    1
  4631 ;; Hardware stack levels required when called:    8
  4632 ;; This function calls:
  4633 ;;		_USBCtrlEPAllowStatusStage
  4634 ;;		_USBCtrlEPService
  4635 ;;		_USBIncrement1msInternalTimers
  4636 ;;		_USBStallHandler
  4637 ;;		_USBSuspend
  4638 ;;		_USBWakeFromSuspend
  4639 ;;		_USER_USB_CALLBACK_EVENT_HANDLER
  4640 ;;		i2_USBDeviceInit
  4641 ;; This function is called by:
  4642 ;;		_isr
  4643 ;; This function uses a non-reentrant model
  4644 ;;
  4645                           
  4646                           	psect	text21
  4647  0013A0                     __ptext21:
  4648                           	opt stack 0
  4649  0013A0                     _USBDeviceTasks:
  4650                           	opt stack 17
  4651                           
  4652                           ;usb_device.c: 479: uint8_t i;
  4653                           ;usb_device.c: 590: if(USBDeviceState == ATTACHED_STATE)
  4654                           
  4655                           ;incstack = 0
  4656  0013A0  0452               	decf	_USBDeviceState,w,c	;volatile
  4657  0013A2  B4D8               	btfsc	status,2,c
  4658                           
  4659                           ;usb_device.c: 591: {
  4660                           ;usb_device.c: 601: if(!UCONbits.SE0)
  4661  0013A4  BA6D               	btfsc	3949,5,c	;volatile
  4662  0013A6  D006               	goto	i2l184
  4663                           
  4664                           ;usb_device.c: 602: {
  4665                           ;usb_device.c: 608: {UIR = 0;};
  4666  0013A8  0E00               	movlw	0
  4667  0013AA  6E68               	movwf	3944,c	;volatile
  4668                           
  4669                           ;usb_device.c: 614: UIEbits.URSTIE = 1;
  4670  0013AC  8069               	bsf	3945,0,c	;volatile
  4671                           
  4672                           ;usb_device.c: 615: UIEbits.IDLEIE = 1;
  4673  0013AE  8869               	bsf	3945,4,c	;volatile
  4674                           
  4675                           ;usb_device.c: 616: USBDeviceState = POWERED_STATE;
  4676  0013B0  0E02               	movlw	2
  4677  0013B2  6E52               	movwf	_USBDeviceState,c	;volatile
  4678  0013B4                     i2l184:
  4679                           
  4680                           ;usb_device.c: 617: }
  4681                           ;usb_device.c: 618: }
  4682                           ;usb_device.c: 634: if(UIRbits.ACTVIF && UIEbits.ACTVIE)
  4683  0013B4  B468               	btfsc	3944,2,c	;volatile
  4684  0013B6  A469               	btfss	3945,2,c	;volatile
  4685  0013B8  D003               	goto	i2l185
  4686                           
  4687                           ;usb_device.c: 635: {
  4688                           ;usb_device.c: 636: (UIR &= 0xFB);
  4689  0013BA  9468               	bcf	3944,2,c	;volatile
  4690                           
  4691                           ;usb_device.c: 640: USBWakeFromSuspend();
  4692  0013BC  EC7F  F013         	call	_USBWakeFromSuspend	;wreg free
  4693  0013C0                     i2l185:
  4694                           
  4695                           ;usb_device.c: 642: }
  4696                           ;usb_device.c: 647: if(UCONbits.SUSPND==1)
  4697  0013C0  A26D               	btfss	3949,1,c	;volatile
  4698  0013C2  D002               	goto	i2l186
  4699                           
  4700                           ;usb_device.c: 648: {
  4701                           ;usb_device.c: 649: {PIR2bits.USBIF = 0;};
  4702  0013C4  9AA1               	bcf	4001,5,c	;volatile
  4703                           
  4704                           ;usb_device.c: 650: return;
  4705  0013C6  0012               	return	
  4706  0013C8                     i2l186:
  4707                           
  4708                           ;usb_device.c: 651: }
  4709                           ;usb_device.c: 663: if(UIRbits.URSTIF && UIEbits.URSTIE)
  4710  0013C8  B068               	btfsc	3944,0,c	;volatile
  4711  0013CA  A069               	btfss	3945,0,c	;volatile
  4712  0013CC  D006               	goto	i2l188
  4713                           
  4714                           ;usb_device.c: 664: {
  4715                           ;usb_device.c: 665: USBDeviceInit();
  4716  0013CE  EC31  F009         	call	i2_USBDeviceInit	;wreg free
  4717                           
  4718                           ;usb_device.c: 669: {PIE2bits.USBIE = 1;};
  4719  0013D2  8AA0               	bsf	4000,5,c	;volatile
  4720                           
  4721                           ;usb_device.c: 671: USBDeviceState = DEFAULT_STATE;
  4722  0013D4  0E04               	movlw	4
  4723  0013D6  6E52               	movwf	_USBDeviceState,c	;volatile
  4724                           
  4725                           ;usb_device.c: 681: (UIR &= 0xFE);
  4726  0013D8  9068               	bcf	3944,0,c	;volatile
  4727  0013DA                     i2l188:
  4728                           
  4729                           ;usb_device.c: 682: }
  4730                           ;usb_device.c: 687: if(UIRbits.IDLEIF && UIEbits.IDLEIE)
  4731  0013DA  B868               	btfsc	3944,4,c	;volatile
  4732  0013DC  A869               	btfss	3945,4,c	;volatile
  4733  0013DE  D002               	goto	i2l189
  4734                           
  4735                           ;usb_device.c: 688: {
  4736                           ;usb_device.c: 694: USBSuspend();
  4737  0013E0  ECCA  F013         	call	_USBSuspend	;wreg free
  4738  0013E4                     i2l189:
  4739                           
  4740                           ;usb_device.c: 696: }
  4741                           ;usb_device.c: 708: if(UIRbits.SOFIF)
  4742  0013E4  AC68               	btfss	3944,6,c	;volatile
  4743  0013E6  D01A               	goto	i2l193
  4744                           
  4745                           ;usb_device.c: 709: {
  4746                           ;usb_device.c: 711: if(UIEbits.SOFIE)
  4747  0013E8  AC69               	btfss	3945,6,c	;volatile
  4748  0013EA  D00E               	goto	i2l191
  4749                           
  4750                           ;usb_device.c: 712: {
  4751                           ;usb_device.c: 713: USER_USB_CALLBACK_EVENT_HANDLER(EVENT_SOF,0,1);
  4752  0013EC  0E00               	movlw	0
  4753  0013EE  6E0E               	movwf	USER_USB_CALLBACK_EVENT_HANDLER@event+1,c
  4754  0013F0  0E73               	movlw	115
  4755  0013F2  6E0D               	movwf	USER_USB_CALLBACK_EVENT_HANDLER@event,c
  4756  0013F4  0E00               	movlw	0
  4757  0013F6  6E0F               	movwf	USER_USB_CALLBACK_EVENT_HANDLER@pdata,c
  4758  0013F8  0E00               	movlw	0
  4759  0013FA  6E10               	movwf	USER_USB_CALLBACK_EVENT_HANDLER@pdata+1,c
  4760  0013FC  0E00               	movlw	0
  4761  0013FE  6E12               	movwf	USER_USB_CALLBACK_EVENT_HANDLER@size+1,c
  4762  001400  0E01               	movlw	1
  4763  001402  6E11               	movwf	USER_USB_CALLBACK_EVENT_HANDLER@size,c
  4764  001404  EC42  F012         	call	_USER_USB_CALLBACK_EVENT_HANDLER	;wreg free
  4765  001408                     i2l191:
  4766                           
  4767                           ;usb_device.c: 714: }
  4768                           ;usb_device.c: 715: (UIR &= 0xBF);
  4769  001408  9C68               	bcf	3944,6,c	;volatile
  4770                           
  4771                           ;usb_device.c: 718: USBIncrement1msInternalTimers();
  4772  00140A  EC2B  F014         	call	_USBIncrement1msInternalTimers	;wreg free
  4773                           
  4774                           ;usb_device.c: 735: if(USBStatusStageTimeoutCounter != 0u)
  4775  00140E  504C               	movf	_USBStatusStageTimeoutCounter,w,c	;volatile
  4776  001410  A4D8               	btfss	status,2,c
  4777                           
  4778                           ;usb_device.c: 736: {
  4779                           ;usb_device.c: 737: USBStatusStageTimeoutCounter--;
  4780  001412  064C               	decf	_USBStatusStageTimeoutCounter,f,c	;volatile
  4781                           
  4782                           ;usb_device.c: 738: }
  4783                           ;usb_device.c: 744: if(USBStatusStageTimeoutCounter == 0)
  4784  001414  504C               	movf	_USBStatusStageTimeoutCounter,w,c	;volatile
  4785  001416  B4D8               	btfsc	status,2,c
  4786                           
  4787                           ;usb_device.c: 745: {
  4788                           ;usb_device.c: 746: USBCtrlEPAllowStatusStage();
  4789  001418  ECD3  F00E         	call	_USBCtrlEPAllowStatusStage	;wreg free
  4790  00141C                     i2l193:
  4791                           
  4792                           ;usb_device.c: 747: }
  4793                           ;usb_device.c: 749: }
  4794                           ;usb_device.c: 751: if(UIRbits.STALLIF && UIEbits.STALLIE)
  4795  00141C  BA68               	btfsc	3944,5,c	;volatile
  4796  00141E  AA69               	btfss	3945,5,c	;volatile
  4797  001420  D002               	goto	i2l194
  4798                           
  4799                           ;usb_device.c: 752: {
  4800                           ;usb_device.c: 753: USBStallHandler();
  4801  001422  EC05  F013         	call	_USBStallHandler	;wreg free
  4802  001426                     i2l194:
  4803                           
  4804                           ;usb_device.c: 754: }
  4805                           ;usb_device.c: 756: if(UIRbits.UERRIF && UIEbits.UERRIE)
  4806  001426  B268               	btfsc	3944,1,c	;volatile
  4807  001428  A269               	btfss	3945,1,c	;volatile
  4808  00142A  D00F               	goto	i2l195
  4809                           
  4810                           ;usb_device.c: 757: {
  4811                           ;usb_device.c: 758: USER_USB_CALLBACK_EVENT_HANDLER(EVENT_BUS_ERROR,0,1);
  4812  00142C  0E7F               	movlw	127
  4813  00142E  6E0E               	movwf	USER_USB_CALLBACK_EVENT_HANDLER@event+1,c
  4814  001430  680D               	setf	USER_USB_CALLBACK_EVENT_HANDLER@event,c
  4815  001432  0E00               	movlw	0
  4816  001434  6E0F               	movwf	USER_USB_CALLBACK_EVENT_HANDLER@pdata,c
  4817  001436  0E00               	movlw	0
  4818  001438  6E10               	movwf	USER_USB_CALLBACK_EVENT_HANDLER@pdata+1,c
  4819  00143A  0E00               	movlw	0
  4820  00143C  6E12               	movwf	USER_USB_CALLBACK_EVENT_HANDLER@size+1,c
  4821  00143E  0E01               	movlw	1
  4822  001440  6E11               	movwf	USER_USB_CALLBACK_EVENT_HANDLER@size,c
  4823  001442  EC42  F012         	call	_USER_USB_CALLBACK_EVENT_HANDLER	;wreg free
  4824                           
  4825                           ;usb_device.c: 759: {UEIR = 0;};
  4826  001446  0E00               	movlw	0
  4827  001448  6E6A               	movwf	3946,c	;volatile
  4828  00144A                     i2l195:
  4829                           
  4830                           ;usb_device.c: 767: }
  4831                           ;usb_device.c: 774: if(USBDeviceState < DEFAULT_STATE)
  4832  00144A  0E04               	movlw	4
  4833  00144C  6052               	cpfslt	_USBDeviceState,c	;volatile
  4834  00144E  D002               	goto	i2l196
  4835                           
  4836                           ;usb_device.c: 775: {
  4837                           ;usb_device.c: 776: {PIR2bits.USBIF = 0;};
  4838  001450  9AA1               	bcf	4001,5,c	;volatile
  4839                           
  4840                           ;usb_device.c: 777: return;
  4841  001452  0012               	return	
  4842  001454                     i2l196:
  4843                           
  4844                           ;usb_device.c: 778: }
  4845                           ;usb_device.c: 783: if(UIEbits.TRNIE)
  4846  001454  A669               	btfss	3945,3,c	;volatile
  4847  001456  D039               	goto	i2u363_40
  4848                           
  4849                           ;usb_device.c: 784: {
  4850                           ;usb_device.c: 785: for(i = 0; i < 4u; i++)
  4851  001458  0E00               	movlw	0
  4852  00145A  6E1C               	movwf	USBDeviceTasks@i,c
  4853  00145C                     i2l4337:
  4854  00145C  0E03               	movlw	3
  4855  00145E  641C               	cpfsgt	USBDeviceTasks@i,c
  4856  001460  D001               	goto	i2l198
  4857  001462  D033               	goto	i2u363_40
  4858  001464                     i2l198:
  4859                           
  4860                           ;usb_device.c: 786: {
  4861                           ;usb_device.c: 787: if(UIRbits.TRNIF)
  4862  001464  A668               	btfss	3944,3,c	;volatile
  4863  001466  D031               	goto	i2u363_40
  4864                           
  4865                           ;usb_device.c: 788: {
  4866                           ;usb_device.c: 790: USTATcopy.Val = USTAT;
  4867  001468  CF6C F05A          	movff	3948,_USTATcopy	;volatile
  4868                           
  4869                           ;usb_device.c: 791: endpoint_number = USTATcopy.endpoint_number;
  4870  00146C  305A               	rrcf	_USTATcopy,w,c	;volatile
  4871  00146E  32E8               	rrcf	wreg,f,c
  4872  001470  32E8               	rrcf	wreg,f,c
  4873  001472  0B0F               	andlw	15
  4874  001474  6E4E               	movwf	_endpoint_number,c	;volatile
  4875                           
  4876                           ;usb_device.c: 793: (UIR &= 0xF7);
  4877  001476  9668               	bcf	3944,3,c	;volatile
  4878                           
  4879                           ;usb_device.c: 798: if(USTATcopy.direction == 0)
  4880  001478  B45A               	btfsc	_USTATcopy,2,c	;volatile
  4881  00147A  D007               	goto	i2l201
  4882                           
  4883                           ;usb_device.c: 799: {
  4884                           ;usb_device.c: 800: ep_data_out[endpoint_number].bits.ping_pong_state ^= 1;
  4885  00147C  504E               	movf	_endpoint_number,w,c	;volatile
  4886  00147E  0D01               	mullw	1
  4887  001480  0E8C               	movlw	low _ep_data_out
  4888  001482  24F3               	addwf	prodl,w,c
  4889  001484  6ED9               	movwf	fsr2l,c
  4890  001486  0E00               	movlw	high _ep_data_out
  4891  001488  D006               	goto	L4
  4892  00148A                     i2l201:
  4893                           
  4894                           ;usb_device.c: 802: else
  4895                           ;usb_device.c: 803: {
  4896                           ;usb_device.c: 804: ep_data_in[endpoint_number].bits.ping_pong_state ^= 1;
  4897                           
  4898                           ; BSR set to: 0
  4899  00148A  504E               	movf	_endpoint_number,w,c	;volatile
  4900  00148C  0D01               	mullw	1
  4901  00148E  0E90               	movlw	low _ep_data_in
  4902  001490  24F3               	addwf	prodl,w,c
  4903  001492  6ED9               	movwf	fsr2l,c
  4904  001494  0E00               	movlw	high _ep_data_in
  4905  001496                     L4:
  4906  001496  20F4               	addwfc	prodh,w,c
  4907  001498  6EDA               	movwf	fsr2h,c
  4908  00149A  0100               	movlb	0	; () banked
  4909  00149C  70DF               	btg	indf2,0,c
  4910                           
  4911                           ; BSR set to: 0
  4912                           ;usb_device.c: 805: }
  4913                           ;usb_device.c: 810: if(endpoint_number == 0)
  4914                           
  4915                           ; BSR set to: 0
  4916  00149E  504E               	movf	_endpoint_number,w,c	;volatile
  4917  0014A0  A4D8               	btfss	status,2,c
  4918  0014A2  D003               	goto	i2l203
  4919                           
  4920                           ; BSR set to: 0
  4921                           ;usb_device.c: 811: {
  4922                           ;usb_device.c: 812: USBCtrlEPService();
  4923  0014A4  EC33  F011         	call	_USBCtrlEPService	;wreg free
  4924                           
  4925                           ;usb_device.c: 813: }
  4926  0014A8  D00E               	goto	i2l205
  4927  0014AA                     i2l203:
  4928                           
  4929                           ;usb_device.c: 814: else
  4930                           ;usb_device.c: 815: {
  4931                           ;usb_device.c: 816: USER_USB_CALLBACK_EVENT_HANDLER(EVENT_TRANSFER,(uint8_t*)&USTATcopy.
      +                          Val,0);
  4932  0014AA  0E00               	movlw	0
  4933  0014AC  6E0E               	movwf	USER_USB_CALLBACK_EVENT_HANDLER@event+1,c
  4934  0014AE  0E72               	movlw	114
  4935  0014B0  6E0D               	movwf	USER_USB_CALLBACK_EVENT_HANDLER@event,c
  4936  0014B2  0E5A               	movlw	low _USTATcopy
  4937  0014B4  6E0F               	movwf	USER_USB_CALLBACK_EVENT_HANDLER@pdata,c
  4938  0014B6  0E00               	movlw	high _USTATcopy
  4939  0014B8  6E10               	movwf	USER_USB_CALLBACK_EVENT_HANDLER@pdata+1,c
  4940  0014BA  0E00               	movlw	0
  4941  0014BC  6E12               	movwf	USER_USB_CALLBACK_EVENT_HANDLER@size+1,c
  4942  0014BE  0E00               	movlw	0
  4943  0014C0  6E11               	movwf	USER_USB_CALLBACK_EVENT_HANDLER@size,c
  4944  0014C2  EC42  F012         	call	_USER_USB_CALLBACK_EVENT_HANDLER	;wreg free
  4945  0014C6                     i2l205:
  4946  0014C6  2A1C               	incf	USBDeviceTasks@i,f,c
  4947  0014C8  D7C9               	goto	i2l4337
  4948  0014CA                     i2u363_40:
  4949                           
  4950                           ;usb_device.c: 822: }
  4951                           ;usb_device.c: 823: }
  4952                           ;usb_device.c: 824: }
  4953                           ;usb_device.c: 826: {PIR2bits.USBIF = 0;};
  4954  0014CA  9AA1               	bcf	4001,5,c	;volatile
  4955  0014CC  0012               	return		;funcret
  4956  0014CE                     __end_of_USBDeviceTasks:
  4957                           	opt stack 0
  4958                           pclatu	equ	0xFFB
  4959                           pclath	equ	0xFFA
  4960                           tblptru	equ	0xFF8
  4961                           tblptrh	equ	0xFF7
  4962                           tblptrl	equ	0xFF6
  4963                           tablat	equ	0xFF5
  4964                           prodh	equ	0xFF4
  4965                           prodl	equ	0xFF3
  4966                           intcon	equ	0xFF2
  4967                           postinc0	equ	0xFEE
  4968                           fsr0h	equ	0xFEA
  4969                           fsr0l	equ	0xFE9
  4970                           wreg	equ	0xFE8
  4971                           indf1	equ	0xFE7
  4972                           fsr1h	equ	0xFE2
  4973                           fsr1l	equ	0xFE1
  4974                           indf2	equ	0xFDF
  4975                           postinc2	equ	0xFDE
  4976                           postdec2	equ	0xFDD
  4977                           plusw2	equ	0xFDB
  4978                           fsr2h	equ	0xFDA
  4979                           fsr2l	equ	0xFD9
  4980                           status	equ	0xFD8
  4981                           
  4982 ;; *************** function i2_USBDeviceInit *****************
  4983 ;; Defined at:
  4984 ;;		line 277 in file "usb/src/usb_device.c"
  4985 ;; Parameters:    Size  Location     Type
  4986 ;;		None
  4987 ;; Auto vars:     Size  Location     Type
  4988 ;;  USBDeviceIni    1    8[COMRAM] unsigned char 
  4989 ;; Return value:  Size  Location     Type
  4990 ;;                  1    wreg      void 
  4991 ;; Registers used:
  4992 ;;		wreg, fsr2l, fsr2h, status,2, status,0, prodl, prodh, cstack
  4993 ;; Tracked objects:
  4994 ;;		On entry : 0/0
  4995 ;;		On exit  : 0/0
  4996 ;;		Unchanged: 0/0
  4997 ;; Data sizes:     COMRAM   BANK0   BANK1   BANK2   BANK3   BANK4   BANK5   BANK6   BANK7
  4998 ;;      Params:         0       0       0       0       0       0       0       0       0
  4999 ;;      Locals:         1       0       0       0       0       0       0       0       0
  5000 ;;      Temps:          0       0       0       0       0       0       0       0       0
  5001 ;;      Totals:         1       0       0       0       0       0       0       0       0
  5002 ;;Total ram usage:        1 bytes
  5003 ;; Hardware stack levels used:    1
  5004 ;; Hardware stack levels required when called:    1
  5005 ;; This function calls:
  5006 ;;		i2_memset
  5007 ;; This function is called by:
  5008 ;;		_USBDeviceTasks
  5009 ;; This function uses a non-reentrant model
  5010 ;;
  5011                           
  5012                           	psect	text22
  5013  001262                     __ptext22:
  5014                           	opt stack 0
  5015  001262                     i2_USBDeviceInit:
  5016                           	opt stack 23
  5017                           
  5018                           ;usb_device.c: 279: uint8_t i;
  5019                           ;usb_device.c: 281: {PIE2bits.USBIE = 0;};
  5020                           
  5021                           ;incstack = 0
  5022  001262  9AA0               	bcf	4000,5,c	;volatile
  5023                           
  5024                           ;usb_device.c: 285: ;
  5025                           ;usb_device.c: 288: {UEIR = 0;};
  5026  001264  0E00               	movlw	0
  5027  001266  6E6A               	movwf	3946,c	;volatile
  5028                           
  5029                           ;usb_device.c: 291: {UIR = 0;};
  5030  001268  0E00               	movlw	0
  5031  00126A  6E68               	movwf	3944,c	;volatile
  5032                           
  5033                           ;usb_device.c: 294: UEP0 = 0;
  5034  00126C  0E00               	movlw	0
  5035  00126E  6E70               	movwf	3952,c	;volatile
  5036                           
  5037                           ;usb_device.c: 296: memset((void*)&UEP1,0x00,(3));;
  5038  001270  0E71               	movlw	113
  5039  001272  6E01               	movwf	i2memset@p1,c
  5040  001274  0E0F               	movlw	15
  5041  001276  6E02               	movwf	i2memset@p1+1,c
  5042  001278  0E00               	movlw	0
  5043  00127A  6E04               	movwf	i2memset@c+1,c
  5044  00127C  0E00               	movlw	0
  5045  00127E  6E03               	movwf	i2memset@c,c
  5046  001280  0E00               	movlw	0
  5047  001282  6E06               	movwf	i2memset@n+1,c
  5048  001284  0E03               	movlw	3
  5049  001286  6E05               	movwf	i2memset@n,c
  5050  001288  ECE1  F013         	call	i2_memset	;wreg free
  5051                           
  5052                           ;usb_device.c: 298: { UCFG = 0x10 | 0x00 | 0x04 | 0x02; UEIE = 0x9F; UIE = 0x39 | 0x40 |
      +                           0x02; };
  5053  00128C  0E16               	movlw	22
  5054  00128E  6E6F               	movwf	3951,c	;volatile
  5055  001290  0E9F               	movlw	159
  5056  001292  6E6B               	movwf	3947,c	;volatile
  5057  001294  0E7B               	movlw	123
  5058  001296  6E69               	movwf	3945,c	;volatile
  5059                           
  5060                           ;usb_device.c: 301: ;
  5061                           ;usb_device.c: 304: ;
  5062                           ;usb_device.c: 307: for(i = 0; i < (sizeof(BDT)/sizeof(BDT_ENTRY)); i++)
  5063  001298  0E00               	movlw	0
  5064  00129A  6E09               	movwf	i2USBDeviceInit@i,c
  5065  00129C                     i2l4203:
  5066  00129C  0E0F               	movlw	15
  5067  00129E  6409               	cpfsgt	i2USBDeviceInit@i,c
  5068  0012A0  D001               	goto	i2l174
  5069  0012A2  D00E               	goto	i2u336_40
  5070  0012A4                     i2l174:
  5071                           
  5072                           ;usb_device.c: 308: {
  5073                           ;usb_device.c: 309: BDT[i].Val = 0x00;
  5074  0012A4  5009               	movf	i2USBDeviceInit@i,w,c
  5075  0012A6  0D04               	mullw	4
  5076  0012A8  0E00               	movlw	0
  5077  0012AA  24F3               	addwf	prodl,w,c
  5078  0012AC  6ED9               	movwf	fsr2l,c
  5079  0012AE  0E04               	movlw	4
  5080  0012B0  20F4               	addwfc	prodh,w,c
  5081  0012B2  6EDA               	movwf	fsr2h,c
  5082  0012B4  6ADE               	clrf	postinc2,c
  5083  0012B6  6ADE               	clrf	postinc2,c
  5084  0012B8  6ADE               	clrf	postinc2,c
  5085  0012BA  6ADD               	clrf	postdec2,c
  5086  0012BC  2A09               	incf	i2USBDeviceInit@i,f,c
  5087  0012BE  D7EE               	goto	i2l4203
  5088  0012C0                     i2u336_40:
  5089                           
  5090                           ;usb_device.c: 310: }
  5091                           ;usb_device.c: 313: UCONbits.PPBRST = 1;
  5092  0012C0  8C6D               	bsf	3949,6,c	;volatile
  5093                           
  5094                           ;usb_device.c: 316: UADDR = 0x00;
  5095  0012C2  0E00               	movlw	0
  5096  0012C4  6E6E               	movwf	3950,c	;volatile
  5097                           
  5098                           ;usb_device.c: 319: UCONbits.PKTDIS = 0;
  5099  0012C6  986D               	bcf	3949,4,c	;volatile
  5100                           
  5101                           ;usb_device.c: 322: UCONbits.PPBRST = 0;
  5102  0012C8  9C6D               	bcf	3949,6,c	;volatile
  5103  0012CA                     
  5104                           ;usb_device.c: 326: {
  5105                           ;usb_device.c: 327: (UIR &= 0xF7);
  5106  0012CA  9668               	bcf	3944,3,c	;volatile
  5107                           
  5108                           ;usb_device.c: 329: inPipes[0].info.Val = 0;
  5109  0012CC  0E00               	movlw	0
  5110  0012CE  0100               	movlb	0	; () banked
  5111  0012D0  6F85               	movwf	(_inPipes+3)& (0+255),b	;volatile
  5112                           
  5113                           ; BSR set to: 0
  5114                           ;usb_device.c: 330: outPipes[0].info.Val = 0;
  5115  0012D2  0E00               	movlw	0
  5116  0012D4  6F6D               	movwf	(_outPipes+3)& (0+255),b	;volatile
  5117                           
  5118                           ; BSR set to: 0
  5119                           ;usb_device.c: 331: outPipes[0].wCount.Val = 0;
  5120  0012D6  0E00               	movlw	0
  5121  0012D8  6F6F               	movwf	(_outPipes+5)& (0+255),b	;volatile
  5122  0012DA  0E00               	movlw	0
  5123  0012DC  6F6E               	movwf	(_outPipes+4)& (0+255),b	;volatile
  5124                           
  5125                           ; BSR set to: 0
  5126                           ;usb_device.c: 332: }while(UIRbits.TRNIF == 1);
  5127  0012DE  B668               	btfsc	3944,3,c	;volatile
  5128  0012E0  D7F4               	goto	i2l176
  5129                           
  5130                           ; BSR set to: 0
  5131                           ;usb_device.c: 336: USBStatusStageEnabledFlag1 = 1;
  5132                           
  5133                           ; BSR set to: 0
  5134  0012E2  0E01               	movlw	1
  5135  0012E4  6E4A               	movwf	_USBStatusStageEnabledFlag1,c	;volatile
  5136                           
  5137                           ;usb_device.c: 337: USBStatusStageEnabledFlag2 = 1;
  5138  0012E6  0E01               	movlw	1
  5139  0012E8  6E49               	movwf	_USBStatusStageEnabledFlag2,c	;volatile
  5140                           
  5141                           ;usb_device.c: 339: USBDeferINDataStagePackets = 0;
  5142  0012EA  0E00               	movlw	0
  5143  0012EC  6E48               	movwf	_USBDeferINDataStagePackets,c	;volatile
  5144                           
  5145                           ;usb_device.c: 340: USBDeferOUTDataStagePackets = 0;
  5146  0012EE  0E00               	movlw	0
  5147  0012F0  6E47               	movwf	_USBDeferOUTDataStagePackets,c	;volatile
  5148                           
  5149                           ;usb_device.c: 341: USBBusIsSuspended = 0;
  5150  0012F2  0E00               	movlw	0
  5151  0012F4  6FA5               	movwf	_USBBusIsSuspended& (0+255),b	;volatile
  5152                           
  5153                           ;usb_device.c: 345: for(i = 0; i < (uint8_t)(3+1u); i++)
  5154  0012F6  0E00               	movlw	0
  5155  0012F8  6E09               	movwf	i2USBDeviceInit@i,c
  5156  0012FA                     i2l4231:
  5157                           
  5158                           ; BSR set to: 0
  5159  0012FA  0E03               	movlw	3
  5160  0012FC  6409               	cpfsgt	i2USBDeviceInit@i,c
  5161  0012FE  D001               	goto	i2l178
  5162  001300  D02E               	goto	i2u339_40
  5163  001302                     i2l178:
  5164                           
  5165                           ;usb_device.c: 346: {
  5166                           ;usb_device.c: 347: pBDTEntryIn[i] = 0u;
  5167                           
  5168                           ; BSR set to: 0
  5169  001302  5009               	movf	i2USBDeviceInit@i,w,c
  5170  001304  0D02               	mullw	2
  5171  001306  0E72               	movlw	low _pBDTEntryIn
  5172  001308  24F3               	addwf	prodl,w,c
  5173  00130A  6ED9               	movwf	fsr2l,c
  5174  00130C  0E00               	movlw	high _pBDTEntryIn
  5175  00130E  20F4               	addwfc	prodh,w,c
  5176  001310  6EDA               	movwf	fsr2h,c
  5177  001312  0E00               	movlw	0
  5178  001314  6EDE               	movwf	postinc2,c
  5179  001316  0E00               	movlw	0
  5180  001318  6EDD               	movwf	postdec2,c
  5181                           
  5182                           ;usb_device.c: 348: pBDTEntryOut[i] = 0u;
  5183  00131A  5009               	movf	i2USBDeviceInit@i,w,c
  5184  00131C  0D02               	mullw	2
  5185  00131E  0E7A               	movlw	low _pBDTEntryOut
  5186  001320  24F3               	addwf	prodl,w,c
  5187  001322  6ED9               	movwf	fsr2l,c
  5188  001324  0E00               	movlw	high _pBDTEntryOut
  5189  001326  20F4               	addwfc	prodh,w,c
  5190  001328  6EDA               	movwf	fsr2h,c
  5191  00132A  0E00               	movlw	0
  5192  00132C  6EDE               	movwf	postinc2,c
  5193  00132E  0E00               	movlw	0
  5194  001330  6EDD               	movwf	postdec2,c
  5195                           
  5196                           ;usb_device.c: 349: ep_data_in[i].Val = 0u;
  5197  001332  5009               	movf	i2USBDeviceInit@i,w,c
  5198  001334  0D01               	mullw	1
  5199  001336  0E90               	movlw	low _ep_data_in
  5200  001338  24F3               	addwf	prodl,w,c
  5201  00133A  6ED9               	movwf	fsr2l,c
  5202  00133C  0E00               	movlw	high _ep_data_in
  5203  00133E  20F4               	addwfc	prodh,w,c
  5204  001340  6EDA               	movwf	fsr2h,c
  5205  001342  0E00               	movlw	0
  5206  001344  6EDF               	movwf	indf2,c
  5207                           
  5208                           ;usb_device.c: 350: ep_data_out[i].Val = 0u;
  5209  001346  5009               	movf	i2USBDeviceInit@i,w,c
  5210  001348  0D01               	mullw	1
  5211  00134A  0E8C               	movlw	low _ep_data_out
  5212  00134C  24F3               	addwf	prodl,w,c
  5213  00134E  6ED9               	movwf	fsr2l,c
  5214  001350  0E00               	movlw	high _ep_data_out
  5215  001352  20F4               	addwfc	prodh,w,c
  5216  001354  6EDA               	movwf	fsr2h,c
  5217  001356  0E00               	movlw	0
  5218  001358  6EDF               	movwf	indf2,c
  5219  00135A  2A09               	incf	i2USBDeviceInit@i,f,c
  5220  00135C  D7CE               	goto	i2l4231
  5221  00135E                     i2u339_40:
  5222                           
  5223                           ;usb_device.c: 351: }
  5224                           ;usb_device.c: 354: pBDTEntryIn[0] = (volatile BDT_ENTRY*)&BDT[2];
  5225  00135E  0E08               	movlw	8
  5226  001360  0100               	movlb	0	; () banked
  5227  001362  6F72               	movwf	_pBDTEntryIn& (0+255),b
  5228  001364  0E04               	movlw	4
  5229  001366  6F73               	movwf	(_pBDTEntryIn+1)& (0+255),b
  5230                           
  5231                           ; BSR set to: 0
  5232                           ;usb_device.c: 356: UEP0 = 0x06|0x10;
  5233  001368  0E16               	movlw	22
  5234  00136A  6E70               	movwf	3952,c	;volatile
  5235                           
  5236                           ; BSR set to: 0
  5237                           ;usb_device.c: 358: BDT[0].ADR = ((uint16_t)(&SetupPkt));
  5238  00136C  0E04               	movlw	4
  5239  00136E  0104               	movlb	4	; () banked
  5240  001370  6F03               	movwf	3,b	;volatile
  5241  001372  0E40               	movlw	64
  5242  001374  6F02               	movwf	2,b	;volatile
  5243                           
  5244                           ; BSR set to: 4
  5245                           ;usb_device.c: 359: BDT[0].CNT = 8;
  5246  001376  0E08               	movlw	8
  5247  001378  6F01               	movwf	1,b	;volatile
  5248                           
  5249                           ; BSR set to: 4
  5250                           ;usb_device.c: 360: BDT[0].STAT.Val = 0x00|0x04;
  5251  00137A  0E04               	movlw	4
  5252  00137C  6F00               	movwf	0,b	;volatile
  5253                           
  5254                           ; BSR set to: 4
  5255                           ;usb_device.c: 361: BDT[0].STAT.Val |= 0x80;
  5256  00137E  8F00               	bsf	0,7,b	;volatile
  5257                           
  5258                           ; BSR set to: 4
  5259                           ;usb_device.c: 364: USBActiveConfiguration = 0;
  5260  001380  0E00               	movlw	0
  5261  001382  6E5B               	movwf	_USBActiveConfiguration,c	;volatile
  5262                           
  5263                           ; BSR set to: 4
  5264                           ;usb_device.c: 366: USB1msTickCount = 0;
  5265  001384  0E00               	movlw	0
  5266  001386  6E2F               	movwf	_USB1msTickCount,c	;volatile
  5267  001388  0E00               	movlw	0
  5268  00138A  6E30               	movwf	_USB1msTickCount+1,c	;volatile
  5269  00138C  0E00               	movlw	0
  5270  00138E  6E31               	movwf	_USB1msTickCount+2,c	;volatile
  5271  001390  0E00               	movlw	0
  5272  001392  6E32               	movwf	_USB1msTickCount+3,c	;volatile
  5273                           
  5274                           ; BSR set to: 4
  5275                           ;usb_device.c: 367: USBTicksSinceSuspendEnd = 0;
  5276  001394  0E00               	movlw	0
  5277  001396  0100               	movlb	0	; () banked
  5278  001398  6FA4               	movwf	_USBTicksSinceSuspendEnd& (0+255),b	;volatile
  5279                           
  5280                           ; BSR set to: 0
  5281                           ;usb_device.c: 370: USBDeviceState = DETACHED_STATE;
  5282  00139A  0E00               	movlw	0
  5283  00139C  6E52               	movwf	_USBDeviceState,c	;volatile
  5284                           
  5285                           ; BSR set to: 0
  5286  00139E  0012               	return		;funcret
  5287  0013A0                     __end_ofi2_USBDeviceInit:
  5288                           	opt stack 0
  5289                           pclatu	equ	0xFFB
  5290                           pclath	equ	0xFFA
  5291                           tblptru	equ	0xFF8
  5292                           tblptrh	equ	0xFF7
  5293                           tblptrl	equ	0xFF6
  5294                           tablat	equ	0xFF5
  5295                           prodh	equ	0xFF4
  5296                           prodl	equ	0xFF3
  5297                           intcon	equ	0xFF2
  5298                           postinc0	equ	0xFEE
  5299                           fsr0h	equ	0xFEA
  5300                           fsr0l	equ	0xFE9
  5301                           wreg	equ	0xFE8
  5302                           indf1	equ	0xFE7
  5303                           fsr1h	equ	0xFE2
  5304                           fsr1l	equ	0xFE1
  5305                           indf2	equ	0xFDF
  5306                           postinc2	equ	0xFDE
  5307                           postdec2	equ	0xFDD
  5308                           plusw2	equ	0xFDB
  5309                           fsr2h	equ	0xFDA
  5310                           fsr2l	equ	0xFD9
  5311                           status	equ	0xFD8
  5312                           
  5313 ;; *************** function _USBWakeFromSuspend *****************
  5314 ;; Defined at:
  5315 ;;		line 2303 in file "usb/src/usb_device.c"
  5316 ;; Parameters:    Size  Location     Type
  5317 ;;		None
  5318 ;; Auto vars:     Size  Location     Type
  5319 ;;		None
  5320 ;; Return value:  Size  Location     Type
  5321 ;;                  1    wreg      void 
  5322 ;; Registers used:
  5323 ;;		wreg, fsr2l, fsr2h, status,2, status,0, prodl, prodh, cstack
  5324 ;; Tracked objects:
  5325 ;;		On entry : 0/0
  5326 ;;		On exit  : 0/0
  5327 ;;		Unchanged: 0/0
  5328 ;; Data sizes:     COMRAM   BANK0   BANK1   BANK2   BANK3   BANK4   BANK5   BANK6   BANK7
  5329 ;;      Params:         0       0       0       0       0       0       0       0       0
  5330 ;;      Locals:         0       0       0       0       0       0       0       0       0
  5331 ;;      Temps:          0       0       0       0       0       0       0       0       0
  5332 ;;      Totals:         0       0       0       0       0       0       0       0       0
  5333 ;;Total ram usage:        0 bytes
  5334 ;; Hardware stack levels used:    1
  5335 ;; Hardware stack levels required when called:    4
  5336 ;; This function calls:
  5337 ;;		_USER_USB_CALLBACK_EVENT_HANDLER
  5338 ;; This function is called by:
  5339 ;;		_USBDeviceTasks
  5340 ;; This function uses a non-reentrant model
  5341 ;;
  5342                           
  5343                           	psect	text23
  5344  0026FE                     __ptext23:
  5345                           	opt stack 0
  5346  0026FE                     _USBWakeFromSuspend:
  5347                           	opt stack 20
  5348                           
  5349                           ;usb_device.c: 2305: USBBusIsSuspended = 0;
  5350                           
  5351                           ; BSR set to: 0
  5352                           ;incstack = 0
  5353  0026FE  0E00               	movlw	0
  5354  002700  0100               	movlb	0	; () banked
  5355  002702  6FA5               	movwf	_USBBusIsSuspended& (0+255),b	;volatile
  5356                           
  5357                           ; BSR set to: 0
  5358                           ;usb_device.c: 2311: USER_USB_CALLBACK_EVENT_HANDLER(EVENT_RESUME,0,0);
  5359  002704  0E00               	movlw	0
  5360  002706  6E0E               	movwf	USER_USB_CALLBACK_EVENT_HANDLER@event+1,c
  5361  002708  0E74               	movlw	116
  5362  00270A  6E0D               	movwf	USER_USB_CALLBACK_EVENT_HANDLER@event,c
  5363  00270C  0E00               	movlw	0
  5364  00270E  6E0F               	movwf	USER_USB_CALLBACK_EVENT_HANDLER@pdata,c
  5365  002710  0E00               	movlw	0
  5366  002712  6E10               	movwf	USER_USB_CALLBACK_EVENT_HANDLER@pdata+1,c
  5367  002714  0E00               	movlw	0
  5368  002716  6E12               	movwf	USER_USB_CALLBACK_EVENT_HANDLER@size+1,c
  5369  002718  0E00               	movlw	0
  5370  00271A  6E11               	movwf	USER_USB_CALLBACK_EVENT_HANDLER@size,c
  5371  00271C  EC42  F012         	call	_USER_USB_CALLBACK_EVENT_HANDLER	;wreg free
  5372                           
  5373                           ;usb_device.c: 2318: UCONbits.SUSPND = 0;
  5374  002720  926D               	bcf	3949,1,c	;volatile
  5375                           
  5376                           ;usb_device.c: 2323: UIEbits.ACTVIE = 0;
  5377  002722  9469               	bcf	3945,2,c	;volatile
  5378                           
  5379                           ;usb_device.c: 2341: while(UIRbits.ACTVIF)
  5380  002724  D001               	goto	i2l344
  5381  002726                     
  5382                           ;usb_device.c: 2343: {
  5383                           ;usb_device.c: 2344: (UIR &= 0xFB);
  5384  002726  9468               	bcf	3944,2,c	;volatile
  5385  002728                     i2l344:
  5386  002728  B468               	btfsc	3944,2,c	;volatile
  5387  00272A  D7FD               	goto	i2l345
  5388                           
  5389                           ;usb_device.c: 2345: }
  5390                           ;usb_device.c: 2347: USBTicksSinceSuspendEnd = 0;
  5391  00272C  0E00               	movlw	0
  5392  00272E  0100               	movlb	0	; () banked
  5393  002730  6FA4               	movwf	_USBTicksSinceSuspendEnd& (0+255),b	;volatile
  5394                           
  5395                           ; BSR set to: 0
  5396  002732  0012               	return		;funcret
  5397  002734                     __end_of_USBWakeFromSuspend:
  5398                           	opt stack 0
  5399                           pclatu	equ	0xFFB
  5400                           pclath	equ	0xFFA
  5401                           tblptru	equ	0xFF8
  5402                           tblptrh	equ	0xFF7
  5403                           tblptrl	equ	0xFF6
  5404                           tablat	equ	0xFF5
  5405                           prodh	equ	0xFF4
  5406                           prodl	equ	0xFF3
  5407                           intcon	equ	0xFF2
  5408                           postinc0	equ	0xFEE
  5409                           fsr0h	equ	0xFEA
  5410                           fsr0l	equ	0xFE9
  5411                           wreg	equ	0xFE8
  5412                           indf1	equ	0xFE7
  5413                           fsr1h	equ	0xFE2
  5414                           fsr1l	equ	0xFE1
  5415                           indf2	equ	0xFDF
  5416                           postinc2	equ	0xFDE
  5417                           postdec2	equ	0xFDD
  5418                           plusw2	equ	0xFDB
  5419                           fsr2h	equ	0xFDA
  5420                           fsr2l	equ	0xFD9
  5421                           status	equ	0xFD8
  5422                           
  5423 ;; *************** function _USBSuspend *****************
  5424 ;; Defined at:
  5425 ;;		line 2245 in file "usb/src/usb_device.c"
  5426 ;; Parameters:    Size  Location     Type
  5427 ;;		None
  5428 ;; Auto vars:     Size  Location     Type
  5429 ;;		None
  5430 ;; Return value:  Size  Location     Type
  5431 ;;                  1    wreg      void 
  5432 ;; Registers used:
  5433 ;;		wreg, fsr2l, fsr2h, status,2, status,0, prodl, prodh, cstack
  5434 ;; Tracked objects:
  5435 ;;		On entry : 0/0
  5436 ;;		On exit  : 0/0
  5437 ;;		Unchanged: 0/0
  5438 ;; Data sizes:     COMRAM   BANK0   BANK1   BANK2   BANK3   BANK4   BANK5   BANK6   BANK7
  5439 ;;      Params:         0       0       0       0       0       0       0       0       0
  5440 ;;      Locals:         0       0       0       0       0       0       0       0       0
  5441 ;;      Temps:          0       0       0       0       0       0       0       0       0
  5442 ;;      Totals:         0       0       0       0       0       0       0       0       0
  5443 ;;Total ram usage:        0 bytes
  5444 ;; Hardware stack levels used:    1
  5445 ;; Hardware stack levels required when called:    4
  5446 ;; This function calls:
  5447 ;;		_USER_USB_CALLBACK_EVENT_HANDLER
  5448 ;; This function is called by:
  5449 ;;		_USBDeviceTasks
  5450 ;; This function uses a non-reentrant model
  5451 ;;
  5452                           
  5453                           	psect	text24
  5454  002794                     __ptext24:
  5455                           	opt stack 0
  5456  002794                     _USBSuspend:
  5457                           	opt stack 20
  5458                           
  5459                           ;usb_device.c: 2270: UIEbits.ACTVIE = 1;
  5460                           
  5461                           ; BSR set to: 0
  5462                           ;incstack = 0
  5463  002794  8469               	bsf	3945,2,c	;volatile
  5464                           
  5465                           ;usb_device.c: 2271: (UIR &= 0xEF);
  5466  002796  9868               	bcf	3944,4,c	;volatile
  5467                           
  5468                           ;usb_device.c: 2274: UCONbits.SUSPND = 1;
  5469  002798  826D               	bsf	3949,1,c	;volatile
  5470                           
  5471                           ;usb_device.c: 2277: USBBusIsSuspended = 1;
  5472  00279A  0E01               	movlw	1
  5473  00279C  0100               	movlb	0	; () banked
  5474  00279E  6FA5               	movwf	_USBBusIsSuspended& (0+255),b	;volatile
  5475                           
  5476                           ; BSR set to: 0
  5477                           ;usb_device.c: 2278: USBTicksSinceSuspendEnd = 0;
  5478  0027A0  0E00               	movlw	0
  5479  0027A2  6FA4               	movwf	_USBTicksSinceSuspendEnd& (0+255),b	;volatile
  5480                           
  5481                           ; BSR set to: 0
  5482                           ;usb_device.c: 2285: USER_USB_CALLBACK_EVENT_HANDLER(EVENT_SUSPEND,0,0);
  5483  0027A4  0E00               	movlw	0
  5484  0027A6  6E0E               	movwf	USER_USB_CALLBACK_EVENT_HANDLER@event+1,c
  5485  0027A8  0E75               	movlw	117
  5486  0027AA  6E0D               	movwf	USER_USB_CALLBACK_EVENT_HANDLER@event,c
  5487  0027AC  0E00               	movlw	0
  5488  0027AE  6E0F               	movwf	USER_USB_CALLBACK_EVENT_HANDLER@pdata,c
  5489  0027B0  0E00               	movlw	0
  5490  0027B2  6E10               	movwf	USER_USB_CALLBACK_EVENT_HANDLER@pdata+1,c
  5491  0027B4  0E00               	movlw	0
  5492  0027B6  6E12               	movwf	USER_USB_CALLBACK_EVENT_HANDLER@size+1,c
  5493  0027B8  0E00               	movlw	0
  5494  0027BA  6E11               	movwf	USER_USB_CALLBACK_EVENT_HANDLER@size,c
  5495  0027BC  EC42  F012         	call	_USER_USB_CALLBACK_EVENT_HANDLER	;wreg free
  5496  0027C0  0012               	return		;funcret
  5497  0027C2                     __end_of_USBSuspend:
  5498                           	opt stack 0
  5499                           pclatu	equ	0xFFB
  5500                           pclath	equ	0xFFA
  5501                           tblptru	equ	0xFF8
  5502                           tblptrh	equ	0xFF7
  5503                           tblptrl	equ	0xFF6
  5504                           tablat	equ	0xFF5
  5505                           prodh	equ	0xFF4
  5506                           prodl	equ	0xFF3
  5507                           intcon	equ	0xFF2
  5508                           postinc0	equ	0xFEE
  5509                           fsr0h	equ	0xFEA
  5510                           fsr0l	equ	0xFE9
  5511                           wreg	equ	0xFE8
  5512                           indf1	equ	0xFE7
  5513                           fsr1h	equ	0xFE2
  5514                           fsr1l	equ	0xFE1
  5515                           indf2	equ	0xFDF
  5516                           postinc2	equ	0xFDE
  5517                           postdec2	equ	0xFDD
  5518                           plusw2	equ	0xFDB
  5519                           fsr2h	equ	0xFDA
  5520                           fsr2l	equ	0xFD9
  5521                           status	equ	0xFD8
  5522                           
  5523 ;; *************** function _USBStallHandler *****************
  5524 ;; Defined at:
  5525 ;;		line 2202 in file "usb/src/usb_device.c"
  5526 ;; Parameters:    Size  Location     Type
  5527 ;;		None
  5528 ;; Auto vars:     Size  Location     Type
  5529 ;;		None
  5530 ;; Return value:  Size  Location     Type
  5531 ;;                  1    wreg      void 
  5532 ;; Registers used:
  5533 ;;		wreg, fsr2l, fsr2h, status,2, status,0
  5534 ;; Tracked objects:
  5535 ;;		On entry : 0/0
  5536 ;;		On exit  : 0/0
  5537 ;;		Unchanged: 0/0
  5538 ;; Data sizes:     COMRAM   BANK0   BANK1   BANK2   BANK3   BANK4   BANK5   BANK6   BANK7
  5539 ;;      Params:         0       0       0       0       0       0       0       0       0
  5540 ;;      Locals:         0       0       0       0       0       0       0       0       0
  5541 ;;      Temps:          1       0       0       0       0       0       0       0       0
  5542 ;;      Totals:         1       0       0       0       0       0       0       0       0
  5543 ;;Total ram usage:        1 bytes
  5544 ;; Hardware stack levels used:    1
  5545 ;; This function calls:
  5546 ;;		Nothing
  5547 ;; This function is called by:
  5548 ;;		_USBDeviceTasks
  5549 ;; This function uses a non-reentrant model
  5550 ;;
  5551                           
  5552                           	psect	text25
  5553  00260A                     __ptext25:
  5554                           	opt stack 0
  5555  00260A                     _USBStallHandler:
  5556                           	opt stack 24
  5557                           
  5558                           ;usb_device.c: 2214: if(UEP0bits.EPSTALL == 1)
  5559                           
  5560                           ;incstack = 0
  5561  00260A  A070               	btfss	3952,0,c	;volatile
  5562  00260C  D01D               	goto	i2l336
  5563                           
  5564                           ;usb_device.c: 2215: {
  5565                           ;usb_device.c: 2217: if((pBDTEntryEP0OutCurrent->STAT.Val == 0x80) && (pBDTEntryIn[0]->S
      +                          TAT.Val == (0x80|0x04)))
  5566  00260E  C041  FFD9         	movff	_pBDTEntryEP0OutCurrent,fsr2l
  5567  002612  C042  FFDA         	movff	_pBDTEntryEP0OutCurrent+1,fsr2h
  5568  002616  0E80               	movlw	128
  5569  002618  18DE               	xorwf	postinc2,w,c
  5570  00261A  A4D8               	btfss	status,2,c
  5571  00261C  D014               	goto	i2l337
  5572  00261E  C072  FFD9         	movff	_pBDTEntryIn,fsr2l
  5573  002622  C073  FFDA         	movff	_pBDTEntryIn+1,fsr2h
  5574  002626  0E84               	movlw	132
  5575  002628  18DE               	xorwf	postinc2,w,c
  5576  00262A  A4D8               	btfss	status,2,c
  5577  00262C  D00C               	goto	i2l337
  5578                           
  5579                           ;usb_device.c: 2218: {
  5580                           ;usb_device.c: 2220: pBDTEntryEP0OutCurrent->STAT.Val = 0x00|(0x08 & 0x08)|0x04;
  5581  00262E  C041  FFD9         	movff	_pBDTEntryEP0OutCurrent,fsr2l
  5582  002632  C042  FFDA         	movff	_pBDTEntryEP0OutCurrent+1,fsr2h
  5583  002636  0E0C               	movlw	12
  5584  002638  6EDF               	movwf	indf2,c
  5585                           
  5586                           ;usb_device.c: 2221: pBDTEntryEP0OutCurrent->STAT.Val |= 0x80;
  5587  00263A  C041  FFD9         	movff	_pBDTEntryEP0OutCurrent,fsr2l
  5588  00263E  C042  FFDA         	movff	_pBDTEntryEP0OutCurrent+1,fsr2h
  5589  002642  0E00               	movlw	0
  5590  002644  8EDB               	bsf	plusw2,7,c
  5591  002646                     i2l337:
  5592                           
  5593                           ;usb_device.c: 2222: }
  5594                           ;usb_device.c: 2223: UEP0bits.EPSTALL = 0;
  5595  002646  9070               	bcf	3952,0,c	;volatile
  5596  002648                     i2l336:
  5597                           
  5598                           ;usb_device.c: 2224: }
  5599                           ;usb_device.c: 2226: (UIR &= 0xDF);
  5600  002648  9A68               	bcf	3944,5,c	;volatile
  5601  00264A  0012               	return		;funcret
  5602  00264C                     __end_of_USBStallHandler:
  5603                           	opt stack 0
  5604                           pclatu	equ	0xFFB
  5605                           pclath	equ	0xFFA
  5606                           tblptru	equ	0xFF8
  5607                           tblptrh	equ	0xFF7
  5608                           tblptrl	equ	0xFF6
  5609                           tablat	equ	0xFF5
  5610                           prodh	equ	0xFF4
  5611                           prodl	equ	0xFF3
  5612                           intcon	equ	0xFF2
  5613                           postinc0	equ	0xFEE
  5614                           fsr0h	equ	0xFEA
  5615                           fsr0l	equ	0xFE9
  5616                           wreg	equ	0xFE8
  5617                           indf1	equ	0xFE7
  5618                           fsr1h	equ	0xFE2
  5619                           fsr1l	equ	0xFE1
  5620                           indf2	equ	0xFDF
  5621                           postinc2	equ	0xFDE
  5622                           postdec2	equ	0xFDD
  5623                           plusw2	equ	0xFDB
  5624                           fsr2h	equ	0xFDA
  5625                           fsr2l	equ	0xFD9
  5626                           status	equ	0xFD8
  5627                           
  5628 ;; *************** function _USBIncrement1msInternalTimers *****************
  5629 ;; Defined at:
  5630 ;;		line 3025 in file "usb/src/usb_device.c"
  5631 ;; Parameters:    Size  Location     Type
  5632 ;;		None
  5633 ;; Auto vars:     Size  Location     Type
  5634 ;;		None
  5635 ;; Return value:  Size  Location     Type
  5636 ;;                  1    wreg      void 
  5637 ;; Registers used:
  5638 ;;		wreg, status,2, status,0
  5639 ;; Tracked objects:
  5640 ;;		On entry : 0/0
  5641 ;;		On exit  : 0/0
  5642 ;;		Unchanged: 0/0
  5643 ;; Data sizes:     COMRAM   BANK0   BANK1   BANK2   BANK3   BANK4   BANK5   BANK6   BANK7
  5644 ;;      Params:         0       0       0       0       0       0       0       0       0
  5645 ;;      Locals:         0       0       0       0       0       0       0       0       0
  5646 ;;      Temps:          0       0       0       0       0       0       0       0       0
  5647 ;;      Totals:         0       0       0       0       0       0       0       0       0
  5648 ;;Total ram usage:        0 bytes
  5649 ;; Hardware stack levels used:    1
  5650 ;; This function calls:
  5651 ;;		Nothing
  5652 ;; This function is called by:
  5653 ;;		_USBDeviceTasks
  5654 ;; This function uses a non-reentrant model
  5655 ;;
  5656                           
  5657                           	psect	text26
  5658  002856                     __ptext26:
  5659                           	opt stack 0
  5660  002856                     _USBIncrement1msInternalTimers:
  5661                           	opt stack 24
  5662                           
  5663                           ;usb_device.c: 3033: USB1msTickCount++;
  5664                           
  5665                           ;incstack = 0
  5666  002856  0E01               	movlw	1
  5667  002858  262F               	addwf	_USB1msTickCount,f,c	;volatile
  5668  00285A  0E00               	movlw	0
  5669  00285C  2230               	addwfc	_USB1msTickCount+1,f,c	;volatile
  5670  00285E  2231               	addwfc	_USB1msTickCount+2,f,c	;volatile
  5671  002860  2232               	addwfc	_USB1msTickCount+3,f,c	;volatile
  5672                           
  5673                           ;usb_device.c: 3034: if(USBBusIsSuspended == 0)
  5674  002862  0100               	movlb	0	; () banked
  5675  002864  51A5               	movf	_USBBusIsSuspended& (0+255),w,b	;volatile
  5676  002866  A4D8               	btfss	status,2,c
  5677  002868  0012               	return	
  5678                           
  5679                           ; BSR set to: 0
  5680                           ;usb_device.c: 3035: {
  5681                           ;usb_device.c: 3036: USBTicksSinceSuspendEnd++;
  5682  00286A  2BA4               	incf	_USBTicksSinceSuspendEnd& (0+255),f,b	;volatile
  5683                           
  5684                           ; BSR set to: 0
  5685                           ;usb_device.c: 3038: if(USBTicksSinceSuspendEnd == 0)
  5686  00286C  51A4               	movf	_USBTicksSinceSuspendEnd& (0+255),w,b	;volatile
  5687  00286E  A4D8               	btfss	status,2,c
  5688  002870  0012               	return	
  5689                           
  5690                           ; BSR set to: 0
  5691                           ;usb_device.c: 3039: {
  5692                           ;usb_device.c: 3040: USBTicksSinceSuspendEnd = 255;
  5693  002872  69A4               	setf	_USBTicksSinceSuspendEnd& (0+255),b	;volatile
  5694                           
  5695                           ; BSR set to: 0
  5696  002874  0012               	return	
  5697  002876                     __end_of_USBIncrement1msInternalTimers:
  5698                           	opt stack 0
  5699                           pclatu	equ	0xFFB
  5700                           pclath	equ	0xFFA
  5701                           tblptru	equ	0xFF8
  5702                           tblptrh	equ	0xFF7
  5703                           tblptrl	equ	0xFF6
  5704                           tablat	equ	0xFF5
  5705                           prodh	equ	0xFF4
  5706                           prodl	equ	0xFF3
  5707                           intcon	equ	0xFF2
  5708                           postinc0	equ	0xFEE
  5709                           fsr0h	equ	0xFEA
  5710                           fsr0l	equ	0xFE9
  5711                           wreg	equ	0xFE8
  5712                           indf1	equ	0xFE7
  5713                           fsr1h	equ	0xFE2
  5714                           fsr1l	equ	0xFE1
  5715                           indf2	equ	0xFDF
  5716                           postinc2	equ	0xFDE
  5717                           postdec2	equ	0xFDD
  5718                           plusw2	equ	0xFDB
  5719                           fsr2h	equ	0xFDA
  5720                           fsr2l	equ	0xFD9
  5721                           status	equ	0xFD8
  5722                           
  5723 ;; *************** function _USBCtrlEPService *****************
  5724 ;; Defined at:
  5725 ;;		line 2372 in file "usb/src/usb_device.c"
  5726 ;; Parameters:    Size  Location     Type
  5727 ;;		None
  5728 ;; Auto vars:     Size  Location     Type
  5729 ;;		None
  5730 ;; Return value:  Size  Location     Type
  5731 ;;                  1    wreg      void 
  5732 ;; Registers used:
  5733 ;;		wreg, fsr1l, fsr1h, fsr2l, fsr2h, status,2, status,0, tblptrl, tblptrh, tblptru, prodl, prodh, cstack
  5734 ;; Tracked objects:
  5735 ;;		On entry : 0/0
  5736 ;;		On exit  : 0/0
  5737 ;;		Unchanged: 0/0
  5738 ;; Data sizes:     COMRAM   BANK0   BANK1   BANK2   BANK3   BANK4   BANK5   BANK6   BANK7
  5739 ;;      Params:         0       0       0       0       0       0       0       0       0
  5740 ;;      Locals:         0       0       0       0       0       0       0       0       0
  5741 ;;      Temps:          1       0       0       0       0       0       0       0       0
  5742 ;;      Totals:         1       0       0       0       0       0       0       0       0
  5743 ;;Total ram usage:        1 bytes
  5744 ;; Hardware stack levels used:    1
  5745 ;; Hardware stack levels required when called:    7
  5746 ;; This function calls:
  5747 ;;		_USBCtrlTrfInHandler
  5748 ;;		_USBCtrlTrfOutHandler
  5749 ;;		_USBCtrlTrfSetupHandler
  5750 ;;		_memcpy
  5751 ;; This function is called by:
  5752 ;;		_USBDeviceTasks
  5753 ;; This function uses a non-reentrant model
  5754 ;;
  5755                           
  5756                           	psect	text27
  5757  002266                     __ptext27:
  5758                           	opt stack 0
  5759  002266                     _USBCtrlEPService:
  5760                           	opt stack 17
  5761                           
  5762                           ;usb_device.c: 2378: USBStatusStageTimeoutCounter = (uint8_t)45;
  5763                           
  5764                           ; BSR set to: 0
  5765                           ;incstack = 0
  5766  002266  0E2D               	movlw	45
  5767  002268  6E4C               	movwf	_USBStatusStageTimeoutCounter,c	;volatile
  5768                           
  5769                           ;usb_device.c: 2382: if((USTATcopy.Val & ~0x02) == 0x00)
  5770  00226A  C05A  F01B         	movff	_USTATcopy,??_USBCtrlEPService	;volatile
  5771  00226E  0EFD               	movlw	253
  5772  002270  161B               	andwf	??_USBCtrlEPService,f,c
  5773  002272  A4D8               	btfss	status,2,c
  5774  002274  D03B               	goto	i2l350
  5775                           
  5776                           ;usb_device.c: 2383: {
  5777                           ;usb_device.c: 2386: pBDTEntryEP0OutCurrent = (volatile BDT_ENTRY*)&BDT[(USTATcopy.Val &
      +                           0x7E)>>1];
  5778  002276  C05A  F01B         	movff	_USTATcopy,??_USBCtrlEPService	;volatile
  5779  00227A  90D8               	bcf	status,0,c
  5780  00227C  321B               	rrcf	??_USBCtrlEPService,f,c
  5781  00227E  0E3F               	movlw	63
  5782  002280  161B               	andwf	??_USBCtrlEPService,f,c
  5783  002282  501B               	movf	??_USBCtrlEPService,w,c
  5784  002284  0D04               	mullw	4
  5785  002286  0E00               	movlw	0
  5786  002288  24F3               	addwf	prodl,w,c
  5787  00228A  6E41               	movwf	_pBDTEntryEP0OutCurrent,c
  5788  00228C  0E04               	movlw	4
  5789  00228E  20F4               	addwfc	prodh,w,c
  5790  002290  6E42               	movwf	_pBDTEntryEP0OutCurrent+1,c
  5791                           
  5792                           ;usb_device.c: 2394: pBDTEntryEP0OutNext = pBDTEntryEP0OutCurrent;
  5793  002292  C041  F03F         	movff	_pBDTEntryEP0OutCurrent,_pBDTEntryEP0OutNext
  5794  002296  C042  F040         	movff	_pBDTEntryEP0OutCurrent+1,_pBDTEntryEP0OutNext+1
  5795                           
  5796                           ;usb_device.c: 2396: pBDTEntryEP0OutNext = (volatile BDT_ENTRY*)(((uintptr_t)pBDTEntryEP
      +                          0OutNext) ^ 0x0004);
  5797  00229A  0E04               	movlw	4
  5798  00229C  183F               	xorwf	_pBDTEntryEP0OutNext,w,c
  5799  00229E  6E3F               	movwf	_pBDTEntryEP0OutNext,c
  5800  0022A0  5040               	movf	_pBDTEntryEP0OutNext+1,w,c
  5801  0022A2  6E40               	movwf	_pBDTEntryEP0OutNext+1,c
  5802                           
  5803                           ;usb_device.c: 2399: if(pBDTEntryEP0OutCurrent->STAT.PID == 0xD)
  5804  0022A4  C041  FFD9         	movff	_pBDTEntryEP0OutCurrent,fsr2l
  5805  0022A8  C042  FFDA         	movff	_pBDTEntryEP0OutCurrent+1,fsr2h
  5806  0022AC  30DF               	rrcf	indf2,w,c
  5807  0022AE  32E8               	rrcf	wreg,f,c
  5808  0022B0  0B0F               	andlw	15
  5809  0022B2  0A0D               	xorlw	13
  5810  0022B4  A4D8               	btfss	status,2,c
  5811  0022B6  D017               	goto	i2l351
  5812                           
  5813                           ;usb_device.c: 2400: {
  5814                           ;usb_device.c: 2405: memcpy((uint8_t*)&SetupPkt, (uint8_t*)((void *)(pBDTEntryEP0OutCurr
      +                          ent->ADR)), 8);
  5815  0022B8  0E40               	movlw	64
  5816  0022BA  6E01               	movwf	memcpy@d1,c
  5817  0022BC  0E04               	movlw	4
  5818  0022BE  6E02               	movwf	memcpy@d1+1,c
  5819  0022C0  EE20 F002          	lfsr	2,2
  5820  0022C4  5041               	movf	_pBDTEntryEP0OutCurrent,w,c
  5821  0022C6  26D9               	addwf	fsr2l,f,c
  5822  0022C8  5042               	movf	_pBDTEntryEP0OutCurrent+1,w,c
  5823  0022CA  22DA               	addwfc	fsr2h,f,c
  5824  0022CC  CFDE F003          	movff	postinc2,memcpy@s1
  5825  0022D0  CFDD F004          	movff	postdec2,memcpy@s1+1
  5826  0022D4  0E00               	movlw	0
  5827  0022D6  6E06               	movwf	memcpy@n+1,c
  5828  0022D8  0E08               	movlw	8
  5829  0022DA  6E05               	movwf	memcpy@n,c
  5830  0022DC  ECC2  F012         	call	_memcpy	;wreg free
  5831                           
  5832                           ;usb_device.c: 2408: USBCtrlTrfSetupHandler();
  5833  0022E0  ECC8  F011         	call	_USBCtrlTrfSetupHandler	;wreg free
  5834                           
  5835                           ;usb_device.c: 2409: }
  5836  0022E4  0012               	return	
  5837  0022E6                     i2l351:
  5838                           
  5839                           ;usb_device.c: 2410: else
  5840                           ;usb_device.c: 2411: {
  5841                           ;usb_device.c: 2413: USBCtrlTrfOutHandler();
  5842  0022E6  EC72  F012         	call	_USBCtrlTrfOutHandler	;wreg free
  5843                           
  5844                           ;usb_device.c: 2414: }
  5845                           ;usb_device.c: 2415: }
  5846  0022EA  0012               	return	
  5847  0022EC                     i2l350:
  5848                           
  5849                           ;usb_device.c: 2416: else if((USTATcopy.Val & ~0x02) == 0x04)
  5850  0022EC  505A               	movf	_USTATcopy,w,c	;volatile
  5851  0022EE  0BFD               	andlw	253
  5852  0022F0  0A04               	xorlw	4
  5853  0022F2  A4D8               	btfss	status,2,c
  5854  0022F4  0012               	return	
  5855                           
  5856                           ;usb_device.c: 2417: {
  5857                           ;usb_device.c: 2420: USBCtrlTrfInHandler();
  5858  0022F6  EC35  F00F         	call	_USBCtrlTrfInHandler	;wreg free
  5859  0022FA  0012               	return	
  5860  0022FC                     __end_of_USBCtrlEPService:
  5861                           	opt stack 0
  5862                           pclatu	equ	0xFFB
  5863                           pclath	equ	0xFFA
  5864                           tblptru	equ	0xFF8
  5865                           tblptrh	equ	0xFF7
  5866                           tblptrl	equ	0xFF6
  5867                           tablat	equ	0xFF5
  5868                           prodh	equ	0xFF4
  5869                           prodl	equ	0xFF3
  5870                           intcon	equ	0xFF2
  5871                           postinc0	equ	0xFEE
  5872                           fsr0h	equ	0xFEA
  5873                           fsr0l	equ	0xFE9
  5874                           wreg	equ	0xFE8
  5875                           indf1	equ	0xFE7
  5876                           fsr1h	equ	0xFE2
  5877                           fsr1l	equ	0xFE1
  5878                           indf2	equ	0xFDF
  5879                           postinc2	equ	0xFDE
  5880                           postdec2	equ	0xFDD
  5881                           plusw2	equ	0xFDB
  5882                           fsr2h	equ	0xFDA
  5883                           fsr2l	equ	0xFD9
  5884                           status	equ	0xFD8
  5885                           
  5886 ;; *************** function _memcpy *****************
  5887 ;; Defined at:
  5888 ;;		line 27 in file "C:\Program Files\Microchip\xc8\v1.45\sources\common\memcpy.c"
  5889 ;; Parameters:    Size  Location     Type
  5890 ;;  d1              2    0[COMRAM] PTR void 
  5891 ;;		 -> SetupPkt(8), 
  5892 ;;  s1              2    2[COMRAM] PTR const void 
  5893 ;;		 -> CtrlTrfData(8), RAM(2047), SetupPkt(8), 
  5894 ;;  n               2    4[COMRAM] unsigned int 
  5895 ;; Auto vars:     Size  Location     Type
  5896 ;;  s               2    8[COMRAM] PTR const unsigned char 
  5897 ;;		 -> CtrlTrfData(8), RAM(2047), SetupPkt(8), 
  5898 ;;  d               2    6[COMRAM] PTR unsigned char 
  5899 ;;		 -> SetupPkt(8), 
  5900 ;;  tmp             1   10[COMRAM] unsigned char 
  5901 ;; Return value:  Size  Location     Type
  5902 ;;                  2    0[COMRAM] PTR void 
  5903 ;; Registers used:
  5904 ;;		wreg, fsr2l, fsr2h, status,2, status,0
  5905 ;; Tracked objects:
  5906 ;;		On entry : 0/0
  5907 ;;		On exit  : 0/0
  5908 ;;		Unchanged: 0/0
  5909 ;; Data sizes:     COMRAM   BANK0   BANK1   BANK2   BANK3   BANK4   BANK5   BANK6   BANK7
  5910 ;;      Params:         6       0       0       0       0       0       0       0       0
  5911 ;;      Locals:         5       0       0       0       0       0       0       0       0
  5912 ;;      Temps:          0       0       0       0       0       0       0       0       0
  5913 ;;      Totals:        11       0       0       0       0       0       0       0       0
  5914 ;;Total ram usage:       11 bytes
  5915 ;; Hardware stack levels used:    1
  5916 ;; This function calls:
  5917 ;;		Nothing
  5918 ;; This function is called by:
  5919 ;;		_USBCtrlEPService
  5920 ;; This function uses a non-reentrant model
  5921 ;;
  5922                           
  5923                           	psect	text28
  5924  002584                     __ptext28:
  5925                           	opt stack 0
  5926  002584                     _memcpy:
  5927                           	opt stack 23
  5928                           
  5929                           ;incstack = 0
  5930  002584  C003  F009         	movff	memcpy@s1,memcpy@s
  5931  002588  C004  F00A         	movff	memcpy@s1+1,memcpy@s+1
  5932  00258C  C001  F007         	movff	memcpy@d1,memcpy@d
  5933  002590  C002  F008         	movff	memcpy@d1+1,memcpy@d+1
  5934  002594  D010               	goto	i2l1293
  5935  002596                     i2l3759:
  5936  002596  C009  FFD9         	movff	memcpy@s,fsr2l
  5937  00259A  C00A  FFDA         	movff	memcpy@s+1,fsr2h
  5938  00259E  50DF               	movf	indf2,w,c
  5939  0025A0  6E0B               	movwf	memcpy@tmp,c
  5940  0025A2  4A09               	infsnz	memcpy@s,f,c
  5941  0025A4  2A0A               	incf	memcpy@s+1,f,c
  5942  0025A6  C007  FFD9         	movff	memcpy@d,fsr2l
  5943  0025AA  C008  FFDA         	movff	memcpy@d+1,fsr2h
  5944  0025AE  C00B  FFDF         	movff	memcpy@tmp,indf2
  5945  0025B2  4A07               	infsnz	memcpy@d,f,c
  5946  0025B4  2A08               	incf	memcpy@d+1,f,c
  5947  0025B6                     i2l1293:
  5948  0025B6  0605               	decf	memcpy@n,f,c
  5949  0025B8  A0D8               	btfss	status,0,c
  5950  0025BA  0606               	decf	memcpy@n+1,f,c
  5951  0025BC  2805               	incf	memcpy@n,w,c
  5952  0025BE  E1EB               	bnz	i2l3759
  5953  0025C0  2806               	incf	memcpy@n+1,w,c
  5954  0025C2  B4D8               	btfsc	status,2,c
  5955  0025C4  0012               	return	
  5956  0025C6  D7E7               	goto	i2l1294
  5957  0025C8                     __end_of_memcpy:
  5958                           	opt stack 0
  5959                           pclatu	equ	0xFFB
  5960                           pclath	equ	0xFFA
  5961                           tblptru	equ	0xFF8
  5962                           tblptrh	equ	0xFF7
  5963                           tblptrl	equ	0xFF6
  5964                           tablat	equ	0xFF5
  5965                           prodh	equ	0xFF4
  5966                           prodl	equ	0xFF3
  5967                           intcon	equ	0xFF2
  5968                           postinc0	equ	0xFEE
  5969                           fsr0h	equ	0xFEA
  5970                           fsr0l	equ	0xFE9
  5971                           wreg	equ	0xFE8
  5972                           indf1	equ	0xFE7
  5973                           fsr1h	equ	0xFE2
  5974                           fsr1l	equ	0xFE1
  5975                           indf2	equ	0xFDF
  5976                           postinc2	equ	0xFDE
  5977                           postdec2	equ	0xFDD
  5978                           plusw2	equ	0xFDB
  5979                           fsr2h	equ	0xFDA
  5980                           fsr2l	equ	0xFD9
  5981                           status	equ	0xFD8
  5982                           
  5983 ;; *************** function _USBCtrlTrfSetupHandler *****************
  5984 ;; Defined at:
  5985 ;;		line 2465 in file "usb/src/usb_device.c"
  5986 ;; Parameters:    Size  Location     Type
  5987 ;;		None
  5988 ;; Auto vars:     Size  Location     Type
  5989 ;;		None
  5990 ;; Return value:  Size  Location     Type
  5991 ;;                  1    wreg      void 
  5992 ;; Registers used:
  5993 ;;		wreg, fsr1l, fsr1h, fsr2l, fsr2h, status,2, status,0, tblptrl, tblptrh, tblptru, prodl, prodh, cstack
  5994 ;; Tracked objects:
  5995 ;;		On entry : 0/0
  5996 ;;		On exit  : 0/0
  5997 ;;		Unchanged: 0/0
  5998 ;; Data sizes:     COMRAM   BANK0   BANK1   BANK2   BANK3   BANK4   BANK5   BANK6   BANK7
  5999 ;;      Params:         0       0       0       0       0       0       0       0       0
  6000 ;;      Locals:         0       0       0       0       0       0       0       0       0
  6001 ;;      Temps:          0       0       0       0       0       0       0       0       0
  6002 ;;      Totals:         0       0       0       0       0       0       0       0       0
  6003 ;;Total ram usage:        0 bytes
  6004 ;; Hardware stack levels used:    1
  6005 ;; Hardware stack levels required when called:    6
  6006 ;; This function calls:
  6007 ;;		_USBCheckStdRequest
  6008 ;;		_USBCtrlEPServiceComplete
  6009 ;;		_USER_USB_CALLBACK_EVENT_HANDLER
  6010 ;; This function is called by:
  6011 ;;		_USBCtrlEPService
  6012 ;; This function uses a non-reentrant model
  6013 ;;
  6014                           
  6015                           	psect	text29
  6016  002390                     __ptext29:
  6017                           	opt stack 0
  6018  002390                     _USBCtrlTrfSetupHandler:
  6019                           	opt stack 17
  6020                           
  6021                           ;usb_device.c: 2470: shortPacketStatus = 0;
  6022                           
  6023                           ;incstack = 0
  6024  002390  0E00               	movlw	0
  6025  002392  6E51               	movwf	_shortPacketStatus,c	;volatile
  6026                           
  6027                           ;usb_device.c: 2471: USBDeferStatusStagePacket = 0;
  6028  002394  0E00               	movlw	0
  6029  002396  6E4B               	movwf	_USBDeferStatusStagePacket,c	;volatile
  6030                           
  6031                           ;usb_device.c: 2472: USBDeferINDataStagePackets = 0;
  6032  002398  0E00               	movlw	0
  6033  00239A  6E48               	movwf	_USBDeferINDataStagePackets,c	;volatile
  6034                           
  6035                           ;usb_device.c: 2473: USBDeferOUTDataStagePackets = 0;
  6036  00239C  0E00               	movlw	0
  6037  00239E  6E47               	movwf	_USBDeferOUTDataStagePackets,c	;volatile
  6038                           
  6039                           ;usb_device.c: 2474: BothEP0OutUOWNsSet = 0;
  6040  0023A0  0E00               	movlw	0
  6041  0023A2  6E4D               	movwf	_BothEP0OutUOWNsSet,c	;volatile
  6042                           
  6043                           ;usb_device.c: 2475: controlTransferState = 0;
  6044  0023A4  0E00               	movlw	0
  6045  0023A6  6E50               	movwf	_controlTransferState,c	;volatile
  6046                           
  6047                           ;usb_device.c: 2484: pBDTEntryIn[0]->STAT.Val &= ~(0x80);
  6048  0023A8  C072  FFD9         	movff	_pBDTEntryIn,fsr2l
  6049  0023AC  C073  FFDA         	movff	_pBDTEntryIn+1,fsr2h
  6050  0023B0  0E7F               	movlw	127
  6051  0023B2  16DF               	andwf	indf2,f,c
  6052                           
  6053                           ;usb_device.c: 2486: pBDTEntryIn[0] = (volatile BDT_ENTRY*)(((uintptr_t)pBDTEntryIn[0]) 
      +                          ^ 0x0004);
  6054  0023B4  0E04               	movlw	4
  6055  0023B6  0100               	movlb	0	; () banked
  6056  0023B8  1972               	xorwf	_pBDTEntryIn& (0+255),w,b
  6057  0023BA  6F72               	movwf	_pBDTEntryIn& (0+255),b
  6058  0023BC  5173               	movf	(_pBDTEntryIn+1)& (0+255),w,b
  6059  0023BE  6F73               	movwf	(_pBDTEntryIn+1)& (0+255),b
  6060                           
  6061                           ; BSR set to: 0
  6062                           ;usb_device.c: 2487: pBDTEntryIn[0]->STAT.Val &= ~(0x80);
  6063  0023C0  C072  FFD9         	movff	_pBDTEntryIn,fsr2l
  6064  0023C4  C073  FFDA         	movff	_pBDTEntryIn+1,fsr2h
  6065  0023C8  0E7F               	movlw	127
  6066  0023CA  16DF               	andwf	indf2,f,c
  6067                           
  6068                           ; BSR set to: 0
  6069                           ;usb_device.c: 2488: pBDTEntryIn[0] = (volatile BDT_ENTRY*)(((uintptr_t)pBDTEntryIn[0]) 
      +                          ^ 0x0004);
  6070  0023CC  0E04               	movlw	4
  6071  0023CE  1972               	xorwf	_pBDTEntryIn& (0+255),w,b
  6072  0023D0  6F72               	movwf	_pBDTEntryIn& (0+255),b
  6073  0023D2  5173               	movf	(_pBDTEntryIn+1)& (0+255),w,b
  6074  0023D4  6F73               	movwf	(_pBDTEntryIn+1)& (0+255),b
  6075                           
  6076                           ; BSR set to: 0
  6077                           ;usb_device.c: 2489: pBDTEntryEP0OutNext->STAT.Val &= ~(0x80);
  6078  0023D6  C03F  FFD9         	movff	_pBDTEntryEP0OutNext,fsr2l
  6079  0023DA  C040  FFDA         	movff	_pBDTEntryEP0OutNext+1,fsr2h
  6080  0023DE  0E7F               	movlw	127
  6081  0023E0  16DF               	andwf	indf2,f,c
  6082                           
  6083                           ; BSR set to: 0
  6084                           ;usb_device.c: 2491: inPipes[0].info.Val = 0;
  6085  0023E2  0E00               	movlw	0
  6086  0023E4  6F85               	movwf	(_inPipes+3)& (0+255),b	;volatile
  6087                           
  6088                           ; BSR set to: 0
  6089                           ;usb_device.c: 2492: inPipes[0].wCount.Val = 0;
  6090  0023E6  0E00               	movlw	0
  6091  0023E8  6F87               	movwf	(_inPipes+5)& (0+255),b	;volatile
  6092  0023EA  0E00               	movlw	0
  6093  0023EC  6F86               	movwf	(_inPipes+4)& (0+255),b	;volatile
  6094                           
  6095                           ; BSR set to: 0
  6096                           ;usb_device.c: 2493: outPipes[0].info.Val = 0;
  6097  0023EE  0E00               	movlw	0
  6098  0023F0  6F6D               	movwf	(_outPipes+3)& (0+255),b	;volatile
  6099                           
  6100                           ; BSR set to: 0
  6101                           ;usb_device.c: 2494: outPipes[0].wCount.Val = 0;
  6102  0023F2  0E00               	movlw	0
  6103  0023F4  6F6F               	movwf	(_outPipes+5)& (0+255),b	;volatile
  6104  0023F6  0E00               	movlw	0
  6105  0023F8  6F6E               	movwf	(_outPipes+4)& (0+255),b	;volatile
  6106                           
  6107                           ; BSR set to: 0
  6108                           ;usb_device.c: 2500: USBCheckStdRequest();
  6109  0023FA  EC8C  F00D         	call	_USBCheckStdRequest	;wreg free
  6110                           
  6111                           ;usb_device.c: 2501: USER_USB_CALLBACK_EVENT_HANDLER(EVENT_EP0_REQUEST,0,0);
  6112  0023FE  0E00               	movlw	0
  6113  002400  6E0E               	movwf	USER_USB_CALLBACK_EVENT_HANDLER@event+1,c
  6114  002402  0E03               	movlw	3
  6115  002404  6E0D               	movwf	USER_USB_CALLBACK_EVENT_HANDLER@event,c
  6116  002406  0E00               	movlw	0
  6117  002408  6E0F               	movwf	USER_USB_CALLBACK_EVENT_HANDLER@pdata,c
  6118  00240A  0E00               	movlw	0
  6119  00240C  6E10               	movwf	USER_USB_CALLBACK_EVENT_HANDLER@pdata+1,c
  6120  00240E  0E00               	movlw	0
  6121  002410  6E12               	movwf	USER_USB_CALLBACK_EVENT_HANDLER@size+1,c
  6122  002412  0E00               	movlw	0
  6123  002414  6E11               	movwf	USER_USB_CALLBACK_EVENT_HANDLER@size,c
  6124  002416  EC42  F012         	call	_USER_USB_CALLBACK_EVENT_HANDLER	;wreg free
  6125                           
  6126                           ;usb_device.c: 2514: USBCtrlEPServiceComplete();
  6127  00241A  EC13  F00D         	call	_USBCtrlEPServiceComplete	;wreg free
  6128  00241E  0012               	return		;funcret
  6129  002420                     __end_of_USBCtrlTrfSetupHandler:
  6130                           	opt stack 0
  6131                           pclatu	equ	0xFFB
  6132                           pclath	equ	0xFFA
  6133                           tblptru	equ	0xFF8
  6134                           tblptrh	equ	0xFF7
  6135                           tblptrl	equ	0xFF6
  6136                           tablat	equ	0xFF5
  6137                           prodh	equ	0xFF4
  6138                           prodl	equ	0xFF3
  6139                           intcon	equ	0xFF2
  6140                           postinc0	equ	0xFEE
  6141                           fsr0h	equ	0xFEA
  6142                           fsr0l	equ	0xFE9
  6143                           wreg	equ	0xFE8
  6144                           indf1	equ	0xFE7
  6145                           fsr1h	equ	0xFE2
  6146                           fsr1l	equ	0xFE1
  6147                           indf2	equ	0xFDF
  6148                           postinc2	equ	0xFDE
  6149                           postdec2	equ	0xFDD
  6150                           plusw2	equ	0xFDB
  6151                           fsr2h	equ	0xFDA
  6152                           fsr2l	equ	0xFD9
  6153                           status	equ	0xFD8
  6154                           
  6155 ;; *************** function _USBCtrlEPServiceComplete *****************
  6156 ;; Defined at:
  6157 ;;		line 1616 in file "usb/src/usb_device.c"
  6158 ;; Parameters:    Size  Location     Type
  6159 ;;		None
  6160 ;; Auto vars:     Size  Location     Type
  6161 ;;		None
  6162 ;; Return value:  Size  Location     Type
  6163 ;;                  1    wreg      void 
  6164 ;; Registers used:
  6165 ;;		wreg, fsr1l, fsr1h, fsr2l, fsr2h, status,2, status,0, tblptrl, tblptrh, tblptru, cstack
  6166 ;; Tracked objects:
  6167 ;;		On entry : 0/0
  6168 ;;		On exit  : 0/0
  6169 ;;		Unchanged: 0/0
  6170 ;; Data sizes:     COMRAM   BANK0   BANK1   BANK2   BANK3   BANK4   BANK5   BANK6   BANK7
  6171 ;;      Params:         0       0       0       0       0       0       0       0       0
  6172 ;;      Locals:         0       0       0       0       0       0       0       0       0
  6173 ;;      Temps:          0       0       0       0       0       0       0       0       0
  6174 ;;      Totals:         0       0       0       0       0       0       0       0       0
  6175 ;;Total ram usage:        0 bytes
  6176 ;; Hardware stack levels used:    1
  6177 ;; Hardware stack levels required when called:    2
  6178 ;; This function calls:
  6179 ;;		_USBCtrlEPAllowDataStage
  6180 ;;		_USBCtrlEPAllowStatusStage
  6181 ;; This function is called by:
  6182 ;;		_USBCtrlTrfSetupHandler
  6183 ;; This function uses a non-reentrant model
  6184 ;;
  6185                           
  6186                           	psect	text30
  6187  001A26                     __ptext30:
  6188                           	opt stack 0
  6189  001A26                     _USBCtrlEPServiceComplete:
  6190                           	opt stack 20
  6191                           
  6192                           ;usb_device.c: 1622: UCONbits.PKTDIS = 0;
  6193                           
  6194                           ;incstack = 0
  6195  001A26  986D               	bcf	3949,4,c	;volatile
  6196                           
  6197                           ;usb_device.c: 1628: if(inPipes[0].info.bits.busy == 0)
  6198  001A28  0100               	movlb	0	; () banked
  6199  001A2A  BF85               	btfsc	(_inPipes+3)& (0+255),7,b	;volatile
  6200  001A2C  D038               	goto	i2l260
  6201                           
  6202                           ; BSR set to: 0
  6203                           ;usb_device.c: 1629: {
  6204                           ;usb_device.c: 1630: if(outPipes[0].info.bits.busy == 1)
  6205  001A2E  AF6D               	btfss	(_outPipes+3)& (0+255),7,b	;volatile
  6206  001A30  D00B               	goto	i2l261
  6207                           
  6208                           ; BSR set to: 0
  6209                           ;usb_device.c: 1631: {
  6210                           ;usb_device.c: 1632: controlTransferState = 2;
  6211  001A32  0E02               	movlw	2
  6212  001A34  6E50               	movwf	_controlTransferState,c	;volatile
  6213                           
  6214                           ;usb_device.c: 1643: if(USBDeferOUTDataStagePackets == 0)
  6215  001A36  5047               	movf	_USBDeferOUTDataStagePackets,w,c	;volatile
  6216  001A38  B4D8               	btfsc	status,2,c
  6217                           
  6218                           ; BSR set to: 0
  6219                           ;usb_device.c: 1644: {
  6220                           ;usb_device.c: 1645: USBCtrlEPAllowDataStage();
  6221  001A3A  EC99  F010         	call	_USBCtrlEPAllowDataStage	;wreg free
  6222                           
  6223                           ;usb_device.c: 1646: }
  6224                           ;usb_device.c: 1650: USBStatusStageEnabledFlag2 = 0;
  6225  001A3E  0E00               	movlw	0
  6226  001A40  6E49               	movwf	_USBStatusStageEnabledFlag2,c	;volatile
  6227                           
  6228                           ;usb_device.c: 1651: USBStatusStageEnabledFlag1 = 0;
  6229  001A42  0E00               	movlw	0
  6230  001A44  6E4A               	movwf	_USBStatusStageEnabledFlag1,c	;volatile
  6231                           
  6232                           ;usb_device.c: 1652: }
  6233  001A46  0012               	return	
  6234  001A48                     i2l261:
  6235                           
  6236                           ;usb_device.c: 1653: else
  6237                           ;usb_device.c: 1654: {
  6238                           ;usb_device.c: 1659: pBDTEntryEP0OutNext->CNT = 8;
  6239  001A48  EE20 F001          	lfsr	2,1
  6240  001A4C  503F               	movf	_pBDTEntryEP0OutNext,w,c
  6241  001A4E  26D9               	addwf	fsr2l,f,c
  6242  001A50  5040               	movf	_pBDTEntryEP0OutNext+1,w,c
  6243  001A52  22DA               	addwfc	fsr2h,f,c
  6244  001A54  0E08               	movlw	8
  6245  001A56  6EDF               	movwf	indf2,c
  6246                           
  6247                           ;usb_device.c: 1660: pBDTEntryEP0OutNext->ADR = ((uint16_t)(&SetupPkt));
  6248  001A58  EE20 F002          	lfsr	2,2
  6249  001A5C  503F               	movf	_pBDTEntryEP0OutNext,w,c
  6250  001A5E  26D9               	addwf	fsr2l,f,c
  6251  001A60  5040               	movf	_pBDTEntryEP0OutNext+1,w,c
  6252  001A62  22DA               	addwfc	fsr2h,f,c
  6253  001A64  0E40               	movlw	64
  6254  001A66  6EDE               	movwf	postinc2,c
  6255  001A68  0E04               	movlw	4
  6256  001A6A  6EDD               	movwf	postdec2,c
  6257                           
  6258                           ;usb_device.c: 1661: pBDTEntryEP0OutNext->STAT.Val = 0x00|(0x08 & 0x08)|0x04;
  6259  001A6C  C03F  FFD9         	movff	_pBDTEntryEP0OutNext,fsr2l
  6260  001A70  C040  FFDA         	movff	_pBDTEntryEP0OutNext+1,fsr2h
  6261  001A74  0E0C               	movlw	12
  6262  001A76  6EDF               	movwf	indf2,c
  6263                           
  6264                           ;usb_device.c: 1662: pBDTEntryEP0OutNext->STAT.Val |= 0x80;
  6265  001A78  C03F  FFD9         	movff	_pBDTEntryEP0OutNext,fsr2l
  6266  001A7C  C040  FFDA         	movff	_pBDTEntryEP0OutNext+1,fsr2h
  6267  001A80  0E00               	movlw	0
  6268  001A82  8EDB               	bsf	plusw2,7,c
  6269                           
  6270                           ;usb_device.c: 1663: pBDTEntryIn[0]->STAT.Val = 0x04;
  6271  001A84  C072  FFD9         	movff	_pBDTEntryIn,fsr2l
  6272  001A88  C073  FFDA         	movff	_pBDTEntryIn+1,fsr2h
  6273  001A8C  0E04               	movlw	4
  6274  001A8E  6EDF               	movwf	indf2,c
  6275                           
  6276                           ;usb_device.c: 1664: pBDTEntryIn[0]->STAT.Val |= 0x80;
  6277  001A90  C072  FFD9         	movff	_pBDTEntryIn,fsr2l
  6278  001A94  C073  FFDA         	movff	_pBDTEntryIn+1,fsr2h
  6279  001A98  0E00               	movlw	0
  6280  001A9A  8EDB               	bsf	plusw2,7,c
  6281                           
  6282                           ;usb_device.c: 1665: }
  6283                           ;usb_device.c: 1666: }
  6284  001A9C  0012               	return	
  6285  001A9E                     i2l260:
  6286                           
  6287                           ; BSR set to: 0
  6288                           ;usb_device.c: 1667: else
  6289                           ;usb_device.c: 1668: {
  6290                           ;usb_device.c: 1669: if(SetupPkt.DataDir == (0x80>>7))
  6291  001A9E  0104               	movlb	4	; () banked
  6292  001AA0  AF40               	btfss	64,7,b	;volatile
  6293  001AA2  D010               	goto	i2l265
  6294                           
  6295                           ; BSR set to: 4
  6296                           ;usb_device.c: 1670: {
  6297                           ;usb_device.c: 1671: controlTransferState = 1;
  6298  001AA4  0E01               	movlw	1
  6299  001AA6  6E50               	movwf	_controlTransferState,c	;volatile
  6300                           
  6301                           ;usb_device.c: 1685: if(USBDeferINDataStagePackets == 0)
  6302  001AA8  5048               	movf	_USBDeferINDataStagePackets,w,c	;volatile
  6303  001AAA  B4D8               	btfsc	status,2,c
  6304                           
  6305                           ; BSR set to: 4
  6306                           ;usb_device.c: 1686: {
  6307                           ;usb_device.c: 1687: USBCtrlEPAllowDataStage();
  6308  001AAC  EC99  F010         	call	_USBCtrlEPAllowDataStage	;wreg free
  6309                           
  6310                           ;usb_device.c: 1688: }
  6311                           ;usb_device.c: 1710: USBStatusStageEnabledFlag2 = 0;
  6312  001AB0  0E00               	movlw	0
  6313  001AB2  6E49               	movwf	_USBStatusStageEnabledFlag2,c	;volatile
  6314                           
  6315                           ;usb_device.c: 1711: USBStatusStageEnabledFlag1 = 0;
  6316  001AB4  0E00               	movlw	0
  6317  001AB6  6E4A               	movwf	_USBStatusStageEnabledFlag1,c	;volatile
  6318                           
  6319                           ;usb_device.c: 1712: if(USBDeferStatusStagePacket == 0)
  6320  001AB8  504B               	movf	_USBDeferStatusStagePacket,w,c	;volatile
  6321  001ABA  A4D8               	btfss	status,2,c
  6322  001ABC  0012               	return	
  6323                           
  6324                           ;usb_device.c: 1713: {
  6325                           ;usb_device.c: 1714: USBCtrlEPAllowStatusStage();
  6326  001ABE  ECD3  F00E         	call	_USBCtrlEPAllowStatusStage	;wreg free
  6327                           
  6328                           ;usb_device.c: 1715: }
  6329                           ;usb_device.c: 1716: }
  6330  001AC2  0012               	return	
  6331  001AC4                     i2l265:
  6332                           
  6333                           ;usb_device.c: 1717: else
  6334                           ;usb_device.c: 1718: {
  6335                           ;usb_device.c: 1729: controlTransferState = 2;
  6336  001AC4  0E02               	movlw	2
  6337  001AC6  6E50               	movwf	_controlTransferState,c	;volatile
  6338                           
  6339                           ;usb_device.c: 1732: pBDTEntryEP0OutNext->CNT = 8;
  6340  001AC8  EE20 F001          	lfsr	2,1
  6341  001ACC  503F               	movf	_pBDTEntryEP0OutNext,w,c
  6342  001ACE  26D9               	addwf	fsr2l,f,c
  6343  001AD0  5040               	movf	_pBDTEntryEP0OutNext+1,w,c
  6344  001AD2  22DA               	addwfc	fsr2h,f,c
  6345  001AD4  0E08               	movlw	8
  6346  001AD6  6EDF               	movwf	indf2,c
  6347                           
  6348                           ;usb_device.c: 1733: pBDTEntryEP0OutNext->ADR = ((uint16_t)(&SetupPkt));
  6349  001AD8  EE20 F002          	lfsr	2,2
  6350  001ADC  503F               	movf	_pBDTEntryEP0OutNext,w,c
  6351  001ADE  26D9               	addwf	fsr2l,f,c
  6352  001AE0  5040               	movf	_pBDTEntryEP0OutNext+1,w,c
  6353  001AE2  22DA               	addwfc	fsr2h,f,c
  6354  001AE4  0E40               	movlw	64
  6355  001AE6  6EDE               	movwf	postinc2,c
  6356  001AE8  0E04               	movlw	4
  6357  001AEA  6EDD               	movwf	postdec2,c
  6358                           
  6359                           ;usb_device.c: 1734: pBDTEntryEP0OutNext->STAT.Val = 0x04;
  6360  001AEC  C03F  FFD9         	movff	_pBDTEntryEP0OutNext,fsr2l
  6361  001AF0  C040  FFDA         	movff	_pBDTEntryEP0OutNext+1,fsr2h
  6362  001AF4  0E04               	movlw	4
  6363  001AF6  6EDF               	movwf	indf2,c
  6364                           
  6365                           ;usb_device.c: 1735: pBDTEntryEP0OutNext->STAT.Val |= 0x80;
  6366  001AF8  C03F  FFD9         	movff	_pBDTEntryEP0OutNext,fsr2l
  6367  001AFC  C040  FFDA         	movff	_pBDTEntryEP0OutNext+1,fsr2h
  6368  001B00  0E00               	movlw	0
  6369  001B02  8EDB               	bsf	plusw2,7,c
  6370                           
  6371                           ;usb_device.c: 1738: USBStatusStageEnabledFlag2 = 0;
  6372  001B04  0E00               	movlw	0
  6373  001B06  6E49               	movwf	_USBStatusStageEnabledFlag2,c	;volatile
  6374                           
  6375                           ;usb_device.c: 1739: USBStatusStageEnabledFlag1 = 0;
  6376  001B08  0E00               	movlw	0
  6377  001B0A  6E4A               	movwf	_USBStatusStageEnabledFlag1,c	;volatile
  6378                           
  6379                           ;usb_device.c: 1740: if(USBDeferStatusStagePacket == 0)
  6380  001B0C  504B               	movf	_USBDeferStatusStagePacket,w,c	;volatile
  6381  001B0E  A4D8               	btfss	status,2,c
  6382  001B10  0012               	return	
  6383                           
  6384                           ;usb_device.c: 1741: {
  6385                           ;usb_device.c: 1742: USBCtrlEPAllowStatusStage();
  6386  001B12  ECD3  F00E         	call	_USBCtrlEPAllowStatusStage	;wreg free
  6387  001B16  0012               	return	
  6388  001B18                     __end_of_USBCtrlEPServiceComplete:
  6389                           	opt stack 0
  6390                           pclatu	equ	0xFFB
  6391                           pclath	equ	0xFFA
  6392                           tblptru	equ	0xFF8
  6393                           tblptrh	equ	0xFF7
  6394                           tblptrl	equ	0xFF6
  6395                           tablat	equ	0xFF5
  6396                           prodh	equ	0xFF4
  6397                           prodl	equ	0xFF3
  6398                           intcon	equ	0xFF2
  6399                           postinc0	equ	0xFEE
  6400                           fsr0h	equ	0xFEA
  6401                           fsr0l	equ	0xFE9
  6402                           wreg	equ	0xFE8
  6403                           indf1	equ	0xFE7
  6404                           fsr1h	equ	0xFE2
  6405                           fsr1l	equ	0xFE1
  6406                           indf2	equ	0xFDF
  6407                           postinc2	equ	0xFDE
  6408                           postdec2	equ	0xFDD
  6409                           plusw2	equ	0xFDB
  6410                           fsr2h	equ	0xFDA
  6411                           fsr2l	equ	0xFD9
  6412                           status	equ	0xFD8
  6413                           
  6414 ;; *************** function _USBCtrlEPAllowDataStage *****************
  6415 ;; Defined at:
  6416 ;;		line 1488 in file "usb/src/usb_device.c"
  6417 ;; Parameters:    Size  Location     Type
  6418 ;;		None
  6419 ;; Auto vars:     Size  Location     Type
  6420 ;;		None
  6421 ;; Return value:  Size  Location     Type
  6422 ;;                  1    wreg      void 
  6423 ;; Registers used:
  6424 ;;		wreg, fsr1l, fsr1h, fsr2l, fsr2h, status,2, status,0, tblptrl, tblptrh, tblptru, cstack
  6425 ;; Tracked objects:
  6426 ;;		On entry : 0/0
  6427 ;;		On exit  : 0/0
  6428 ;;		Unchanged: 0/0
  6429 ;; Data sizes:     COMRAM   BANK0   BANK1   BANK2   BANK3   BANK4   BANK5   BANK6   BANK7
  6430 ;;      Params:         0       0       0       0       0       0       0       0       0
  6431 ;;      Locals:         0       0       0       0       0       0       0       0       0
  6432 ;;      Temps:          0       0       0       0       0       0       0       0       0
  6433 ;;      Totals:         0       0       0       0       0       0       0       0       0
  6434 ;;Total ram usage:        0 bytes
  6435 ;; Hardware stack levels used:    1
  6436 ;; Hardware stack levels required when called:    1
  6437 ;; This function calls:
  6438 ;;		_USBCtrlTrfTxService
  6439 ;; This function is called by:
  6440 ;;		_USBCtrlEPServiceComplete
  6441 ;; This function uses a non-reentrant model
  6442 ;;
  6443                           
  6444                           	psect	text31
  6445  002132                     __ptext31:
  6446                           	opt stack 0
  6447  002132                     _USBCtrlEPAllowDataStage:
  6448                           	opt stack 20
  6449                           
  6450                           ;usb_device.c: 1490: USBDeferINDataStagePackets = 0;
  6451                           
  6452                           ;incstack = 0
  6453  002132  0E00               	movlw	0
  6454  002134  6E48               	movwf	_USBDeferINDataStagePackets,c	;volatile
  6455                           
  6456                           ;usb_device.c: 1491: USBDeferOUTDataStagePackets = 0;
  6457  002136  0E00               	movlw	0
  6458  002138  6E47               	movwf	_USBDeferOUTDataStagePackets,c	;volatile
  6459                           
  6460                           ;usb_device.c: 1493: if(controlTransferState == 2)
  6461  00213A  0E02               	movlw	2
  6462  00213C  1850               	xorwf	_controlTransferState,w,c	;volatile
  6463  00213E  A4D8               	btfss	status,2,c
  6464  002140  D01F               	goto	i2l249
  6465                           
  6466                           ;usb_device.c: 1494: {
  6467                           ;usb_device.c: 1496: pBDTEntryEP0OutNext->CNT = 8;
  6468  002142  EE20 F001          	lfsr	2,1
  6469  002146  503F               	movf	_pBDTEntryEP0OutNext,w,c
  6470  002148  26D9               	addwf	fsr2l,f,c
  6471  00214A  5040               	movf	_pBDTEntryEP0OutNext+1,w,c
  6472  00214C  22DA               	addwfc	fsr2h,f,c
  6473  00214E  0E08               	movlw	8
  6474  002150  6EDF               	movwf	indf2,c
  6475                           
  6476                           ;usb_device.c: 1497: pBDTEntryEP0OutNext->ADR = ((uint16_t)(&CtrlTrfData));
  6477  002152  EE20 F002          	lfsr	2,2
  6478  002156  503F               	movf	_pBDTEntryEP0OutNext,w,c
  6479  002158  26D9               	addwf	fsr2l,f,c
  6480  00215A  5040               	movf	_pBDTEntryEP0OutNext+1,w,c
  6481  00215C  22DA               	addwfc	fsr2h,f,c
  6482  00215E  0E48               	movlw	72
  6483  002160  6EDE               	movwf	postinc2,c
  6484  002162  0E04               	movlw	4
  6485  002164  6EDD               	movwf	postdec2,c
  6486                           
  6487                           ;usb_device.c: 1498: pBDTEntryEP0OutNext->STAT.Val = 0x40|(0x08 & 0x08);
  6488  002166  C03F  FFD9         	movff	_pBDTEntryEP0OutNext,fsr2l
  6489  00216A  C040  FFDA         	movff	_pBDTEntryEP0OutNext+1,fsr2h
  6490  00216E  0E48               	movlw	72
  6491  002170  6EDF               	movwf	indf2,c
  6492                           
  6493                           ;usb_device.c: 1499: pBDTEntryEP0OutNext->STAT.Val |= 0x80;
  6494  002172  C03F  FFD9         	movff	_pBDTEntryEP0OutNext,fsr2l
  6495  002176  C040  FFDA         	movff	_pBDTEntryEP0OutNext+1,fsr2h
  6496  00217A  0E00               	movlw	0
  6497  00217C  8EDB               	bsf	plusw2,7,c
  6498                           
  6499                           ;usb_device.c: 1500: }
  6500  00217E  0012               	return	
  6501  002180                     i2l249:
  6502                           
  6503                           ;usb_device.c: 1501: else
  6504                           ;usb_device.c: 1502: {
  6505                           ;usb_device.c: 1505: if(SetupPkt.wLength < inPipes[0].wCount.Val)
  6506  002180  0100               	movlb	0	; () banked
  6507  002182  5186               	movf	(_inPipes+4)& (0+255),w,b	;volatile
  6508  002184  0104               	movlb	4	; () banked
  6509  002186  5D46               	subwf	70,w,b	;volatile
  6510  002188  0100               	movlb	0	; () banked
  6511  00218A  5187               	movf	(_inPipes+5)& (0+255),w,b	;volatile
  6512  00218C  0104               	movlb	4	; () banked
  6513  00218E  5947               	subwfb	71,w,b	;volatile
  6514  002190  B0D8               	btfsc	status,0,c
  6515  002192  D004               	goto	i2l251
  6516                           
  6517                           ; BSR set to: 4
  6518                           ;usb_device.c: 1506: {
  6519                           ;usb_device.c: 1507: inPipes[0].wCount.Val = SetupPkt.wLength;
  6520  002194  C446 F086          	movff	1094,_inPipes+4	;volatile
  6521  002198  C447 F087          	movff	1095,_inPipes+5	;volatile
  6522  00219C                     i2l251:
  6523                           
  6524                           ; BSR set to: 4
  6525                           ;usb_device.c: 1508: }
  6526                           ;usb_device.c: 1509: USBCtrlTrfTxService();
  6527                           
  6528                           ; BSR set to: 4
  6529  00219C  EC6D  F00E         	call	_USBCtrlTrfTxService	;wreg free
  6530                           
  6531                           ;usb_device.c: 1514: pBDTEntryIn[0]->ADR = ((uint16_t)(&CtrlTrfData));
  6532  0021A0  0100               	movlb	0	; () banked
  6533  0021A2  EE20 F002          	lfsr	2,2
  6534  0021A6  5172               	movf	_pBDTEntryIn& (0+255),w,b
  6535  0021A8  26D9               	addwf	fsr2l,f,c
  6536  0021AA  5173               	movf	(_pBDTEntryIn+1)& (0+255),w,b
  6537  0021AC  22DA               	addwfc	fsr2h,f,c
  6538  0021AE  0E48               	movlw	72
  6539  0021B0  6EDE               	movwf	postinc2,c
  6540  0021B2  0E04               	movlw	4
  6541  0021B4  6EDD               	movwf	postdec2,c
  6542                           
  6543                           ; BSR set to: 0
  6544                           ;usb_device.c: 1515: pBDTEntryIn[0]->STAT.Val = 0x40|(0x08 & 0x08);
  6545  0021B6  C072  FFD9         	movff	_pBDTEntryIn,fsr2l
  6546  0021BA  C073  FFDA         	movff	_pBDTEntryIn+1,fsr2h
  6547  0021BE  0E48               	movlw	72
  6548  0021C0  6EDF               	movwf	indf2,c
  6549                           
  6550                           ; BSR set to: 0
  6551                           ;usb_device.c: 1516: pBDTEntryIn[0]->STAT.Val |= 0x80;
  6552  0021C2  C072  FFD9         	movff	_pBDTEntryIn,fsr2l
  6553  0021C6  C073  FFDA         	movff	_pBDTEntryIn+1,fsr2h
  6554  0021CA  0E00               	movlw	0
  6555  0021CC  8EDB               	bsf	plusw2,7,c
  6556  0021CE  0012               	return	
  6557  0021D0                     __end_of_USBCtrlEPAllowDataStage:
  6558                           	opt stack 0
  6559                           pclatu	equ	0xFFB
  6560                           pclath	equ	0xFFA
  6561                           tblptru	equ	0xFF8
  6562                           tblptrh	equ	0xFF7
  6563                           tblptrl	equ	0xFF6
  6564                           tablat	equ	0xFF5
  6565                           prodh	equ	0xFF4
  6566                           prodl	equ	0xFF3
  6567                           intcon	equ	0xFF2
  6568                           postinc0	equ	0xFEE
  6569                           fsr0h	equ	0xFEA
  6570                           fsr0l	equ	0xFE9
  6571                           wreg	equ	0xFE8
  6572                           indf1	equ	0xFE7
  6573                           fsr1h	equ	0xFE2
  6574                           fsr1l	equ	0xFE1
  6575                           indf2	equ	0xFDF
  6576                           postinc2	equ	0xFDE
  6577                           postdec2	equ	0xFDD
  6578                           plusw2	equ	0xFDB
  6579                           fsr2h	equ	0xFDA
  6580                           fsr2l	equ	0xFD9
  6581                           status	equ	0xFD8
  6582                           
  6583 ;; *************** function _USBCheckStdRequest *****************
  6584 ;; Defined at:
  6585 ;;		line 2686 in file "usb/src/usb_device.c"
  6586 ;; Parameters:    Size  Location     Type
  6587 ;;		None
  6588 ;; Auto vars:     Size  Location     Type
  6589 ;;		None
  6590 ;; Return value:  Size  Location     Type
  6591 ;;                  1    wreg      void 
  6592 ;; Registers used:
  6593 ;;		wreg, fsr1l, fsr1h, fsr2l, fsr2h, status,2, status,0, tblptrl, tblptrh, tblptru, prodl, prodh, cstack
  6594 ;; Tracked objects:
  6595 ;;		On entry : 0/0
  6596 ;;		On exit  : 0/0
  6597 ;;		Unchanged: 0/0
  6598 ;; Data sizes:     COMRAM   BANK0   BANK1   BANK2   BANK3   BANK4   BANK5   BANK6   BANK7
  6599 ;;      Params:         0       0       0       0       0       0       0       0       0
  6600 ;;      Locals:         0       0       0       0       0       0       0       0       0
  6601 ;;      Temps:          0       0       0       0       0       0       0       0       0
  6602 ;;      Totals:         0       0       0       0       0       0       0       0       0
  6603 ;;Total ram usage:        0 bytes
  6604 ;; Hardware stack levels used:    1
  6605 ;; Hardware stack levels required when called:    5
  6606 ;; This function calls:
  6607 ;;		_USBStdFeatureReqHandler
  6608 ;;		_USBStdGetDscHandler
  6609 ;;		_USBStdGetStatusHandler
  6610 ;;		_USBStdSetCfgHandler
  6611 ;;		_USER_USB_CALLBACK_EVENT_HANDLER
  6612 ;; This function is called by:
  6613 ;;		_USBCtrlTrfSetupHandler
  6614 ;; This function uses a non-reentrant model
  6615 ;;
  6616                           
  6617                           	psect	text32
  6618  001B18                     __ptext32:
  6619                           	opt stack 0
  6620  001B18                     _USBCheckStdRequest:
  6621                           	opt stack 17
  6622                           
  6623                           ;usb_device.c: 2688: if(SetupPkt.RequestType != (0x00>>5)) return;
  6624                           
  6625                           ;incstack = 0
  6626  001B18  0104               	movlb	4	; () banked
  6627  001B1A  3940               	swapf	64,w,b	;volatile
  6628  001B1C  32E8               	rrcf	wreg,f,c
  6629  001B1E  0B03               	andlw	3
  6630  001B20  0900               	iorlw	0
  6631  001B22  A4D8               	btfss	status,2,c
  6632  001B24  0012               	return	
  6633  001B26  D047               	goto	i2l384
  6634  001B28                     i2l385:
  6635                           
  6636                           ; BSR set to: 4
  6637                           ;usb_device.c: 2693: inPipes[0].info.bits.busy = 1;
  6638  001B28  0100               	movlb	0	; () banked
  6639  001B2A  8F85               	bsf	(_inPipes+3)& (0+255),7,b	;volatile
  6640                           
  6641                           ; BSR set to: 0
  6642                           ;usb_device.c: 2694: USBDeviceState = ADR_PENDING_STATE;
  6643  001B2C  0E08               	movlw	8
  6644  001B2E  6E52               	movwf	_USBDeviceState,c	;volatile
  6645                           
  6646                           ;usb_device.c: 2696: break;
  6647  001B30  0012               	return	
  6648  001B32                     
  6649                           ;usb_device.c: 2698: USBStdGetDscHandler();
  6650                           
  6651                           ; BSR set to: 0
  6652  001B32  EC67  F00A         	call	_USBStdGetDscHandler	;wreg free
  6653                           
  6654                           ;usb_device.c: 2699: break;
  6655  001B36  0012               	return	
  6656  001B38                     
  6657                           ;usb_device.c: 2701: USBStdSetCfgHandler();
  6658  001B38  ECFD  F00D         	call	_USBStdSetCfgHandler	;wreg free
  6659                           
  6660                           ;usb_device.c: 2702: break;
  6661  001B3C  0012               	return	
  6662  001B3E                     
  6663                           ;usb_device.c: 2704: inPipes[0].pSrc.bRam = (uint8_t*)&USBActiveConfiguration;
  6664  001B3E  0E5B               	movlw	low _USBActiveConfiguration
  6665  001B40  0100               	movlb	0	; () banked
  6666  001B42  6F82               	movwf	_inPipes& (0+255),b	;volatile
  6667  001B44  0E00               	movlw	high _USBActiveConfiguration
  6668  001B46  6F83               	movwf	(_inPipes+1)& (0+255),b	;volatile
  6669                           
  6670                           ; BSR set to: 0
  6671                           ;usb_device.c: 2705: inPipes[0].info.bits.ctrl_trf_mem = 0x01;
  6672  001B48  8185               	bsf	(_inPipes+3)& (0+255),0,b	;volatile
  6673                           
  6674                           ; BSR set to: 0
  6675                           ;usb_device.c: 2706: inPipes[0].wCount.v[0] = 1;
  6676  001B4A  0E01               	movlw	1
  6677  001B4C  6F86               	movwf	(_inPipes+4)& (0+255),b	;volatile
  6678                           
  6679                           ; BSR set to: 0
  6680                           ;usb_device.c: 2707: inPipes[0].info.bits.busy = 1;
  6681  001B4E  8F85               	bsf	(_inPipes+3)& (0+255),7,b	;volatile
  6682                           
  6683                           ;usb_device.c: 2708: break;
  6684  001B50  0012               	return	
  6685  001B52                     
  6686                           ;usb_device.c: 2710: USBStdGetStatusHandler();
  6687                           
  6688                           ; BSR set to: 0
  6689  001B52  EC45  F010         	call	_USBStdGetStatusHandler	;wreg free
  6690                           
  6691                           ;usb_device.c: 2711: break;
  6692  001B56  0012               	return	
  6693  001B58                     
  6694                           ;usb_device.c: 2713: case 3:
  6695                           ;usb_device.c: 2714: USBStdFeatureReqHandler();
  6696  001B58  EC52  F007         	call	_USBStdFeatureReqHandler	;wreg free
  6697                           
  6698                           ;usb_device.c: 2715: break;
  6699  001B5C  0012               	return	
  6700  001B5E                     
  6701                           ;usb_device.c: 2717: inPipes[0].pSrc.bRam = (uint8_t*)&USBAlternateInterface[SetupPkt.bI
      +                          ntfID];
  6702  001B5E  0104               	movlb	4	; () banked
  6703  001B60  5144               	movf	68,w,b	;volatile
  6704  001B62  0D01               	mullw	1
  6705  001B64  0EAE               	movlw	low _USBAlternateInterface
  6706  001B66  24F3               	addwf	prodl,w,c
  6707  001B68  0100               	movlb	0	; () banked
  6708  001B6A  6F82               	movwf	_inPipes& (0+255),b	;volatile
  6709  001B6C  0E00               	movlw	high _USBAlternateInterface
  6710  001B6E  20F4               	addwfc	prodh,w,c
  6711  001B70  6F83               	movwf	(_inPipes+1)& (0+255),b	;volatile
  6712                           
  6713                           ; BSR set to: 0
  6714                           ;usb_device.c: 2718: inPipes[0].info.bits.ctrl_trf_mem = 0x01;
  6715  001B72  8185               	bsf	(_inPipes+3)& (0+255),0,b	;volatile
  6716                           
  6717                           ; BSR set to: 0
  6718                           ;usb_device.c: 2719: inPipes[0].wCount.v[0] = 1;
  6719  001B74  0E01               	movlw	1
  6720  001B76  6F86               	movwf	(_inPipes+4)& (0+255),b	;volatile
  6721                           
  6722                           ; BSR set to: 0
  6723                           ;usb_device.c: 2720: inPipes[0].info.bits.busy = 1;
  6724  001B78  8F85               	bsf	(_inPipes+3)& (0+255),7,b	;volatile
  6725                           
  6726                           ;usb_device.c: 2721: break;
  6727  001B7A  0012               	return	
  6728  001B7C                     i2l394:
  6729                           
  6730                           ; BSR set to: 4
  6731                           ;usb_device.c: 2723: inPipes[0].info.bits.busy = 1;
  6732  001B7C  0100               	movlb	0	; () banked
  6733  001B7E  8F85               	bsf	(_inPipes+3)& (0+255),7,b	;volatile
  6734                           
  6735                           ; BSR set to: 0
  6736                           ;usb_device.c: 2724: USBAlternateInterface[SetupPkt.bIntfID] = SetupPkt.bAltID;
  6737  001B80  0104               	movlb	4	; () banked
  6738  001B82  5144               	movf	68,w,b	;volatile
  6739  001B84  0D01               	mullw	1
  6740  001B86  0EAE               	movlw	low _USBAlternateInterface
  6741  001B88  24F3               	addwf	prodl,w,c
  6742  001B8A  6ED9               	movwf	fsr2l,c
  6743  001B8C  0E00               	movlw	high _USBAlternateInterface
  6744  001B8E  20F4               	addwfc	prodh,w,c
  6745  001B90  6EDA               	movwf	fsr2h,c
  6746  001B92  C442 FFDF          	movff	1090,indf2	;volatile
  6747                           
  6748                           ;usb_device.c: 2725: break;
  6749  001B96  0012               	return	
  6750  001B98                     
  6751                           ; BSR set to: 4
  6752                           ;usb_device.c: 2727: USER_USB_CALLBACK_EVENT_HANDLER(EVENT_SET_DESCRIPTOR,0,0);
  6753                           
  6754                           ; BSR set to: 4
  6755  001B98  0E00               	movlw	0
  6756  001B9A  6E0E               	movwf	USER_USB_CALLBACK_EVENT_HANDLER@event+1,c
  6757  001B9C  0E02               	movlw	2
  6758  001B9E  6E0D               	movwf	USER_USB_CALLBACK_EVENT_HANDLER@event,c
  6759  001BA0  0E00               	movlw	0
  6760  001BA2  6E0F               	movwf	USER_USB_CALLBACK_EVENT_HANDLER@pdata,c
  6761  001BA4  0E00               	movlw	0
  6762  001BA6  6E10               	movwf	USER_USB_CALLBACK_EVENT_HANDLER@pdata+1,c
  6763  001BA8  0E00               	movlw	0
  6764  001BAA  6E12               	movwf	USER_USB_CALLBACK_EVENT_HANDLER@size+1,c
  6765  001BAC  0E00               	movlw	0
  6766  001BAE  6E11               	movwf	USER_USB_CALLBACK_EVENT_HANDLER@size,c
  6767  001BB0  EC42  F012         	call	_USER_USB_CALLBACK_EVENT_HANDLER	;wreg free
  6768                           
  6769                           ;usb_device.c: 2732: }
  6770                           
  6771                           ;usb_device.c: 2731: break;
  6772                           
  6773                           ;usb_device.c: 2730: default:
  6774                           
  6775                           ;usb_device.c: 2729: case 12:
  6776                           
  6777                           ;usb_device.c: 2728: break;
  6778  001BB4  0012               	return	
  6779  001BB6                     i2l384:
  6780  001BB6  0104               	movlb	4	; () banked
  6781  001BB8  5141               	movf	65,w,b	;volatile
  6782                           
  6783                           ; Switch size 1, requested type "space"
  6784                           ; Number of cases is 11, Range of values is 0 to 12
  6785                           ; switch strategies available:
  6786                           ; Name         Instructions Cycles
  6787                           ; simple_byte           34    18 (average)
  6788                           ;	Chosen strategy is simple_byte
  6789  001BBA  0A00               	xorlw	0	; case 0
  6790  001BBC  B4D8               	btfsc	status,2,c
  6791  001BBE  D7C9               	goto	i2l390
  6792  001BC0  0A01               	xorlw	1	; case 1
  6793  001BC2  B4D8               	btfsc	status,2,c
  6794  001BC4  D7C9               	goto	i2l391
  6795  001BC6  0A02               	xorlw	2	; case 3
  6796  001BC8  B4D8               	btfsc	status,2,c
  6797  001BCA  D7C6               	goto	i2l391
  6798  001BCC  0A06               	xorlw	6	; case 5
  6799  001BCE  B4D8               	btfsc	status,2,c
  6800  001BD0  D7AB               	goto	i2l385
  6801  001BD2  0A03               	xorlw	3	; case 6
  6802  001BD4  B4D8               	btfsc	status,2,c
  6803  001BD6  D7AD               	goto	i2l387
  6804  001BD8  0A01               	xorlw	1	; case 7
  6805  001BDA  B4D8               	btfsc	status,2,c
  6806  001BDC  D7DD               	goto	i2l395
  6807  001BDE  0A0F               	xorlw	15	; case 8
  6808  001BE0  B4D8               	btfsc	status,2,c
  6809  001BE2  D7AD               	goto	i2l389
  6810  001BE4  0A01               	xorlw	1	; case 9
  6811  001BE6  B4D8               	btfsc	status,2,c
  6812  001BE8  D7A7               	goto	i2l388
  6813  001BEA  0A03               	xorlw	3	; case 10
  6814  001BEC  B4D8               	btfsc	status,2,c
  6815  001BEE  D7B7               	goto	i2l393
  6816  001BF0  0A01               	xorlw	1	; case 11
  6817  001BF2  B4D8               	btfsc	status,2,c
  6818  001BF4  D7C3               	goto	i2l394
  6819  001BF6  0A07               	xorlw	7	; case 12
  6820  001BF8  0012               	return	
  6821  001BFA                     __end_of_USBCheckStdRequest:
  6822                           	opt stack 0
  6823                           pclatu	equ	0xFFB
  6824                           pclath	equ	0xFFA
  6825                           tblptru	equ	0xFF8
  6826                           tblptrh	equ	0xFF7
  6827                           tblptrl	equ	0xFF6
  6828                           tablat	equ	0xFF5
  6829                           prodh	equ	0xFF4
  6830                           prodl	equ	0xFF3
  6831                           intcon	equ	0xFF2
  6832                           postinc0	equ	0xFEE
  6833                           fsr0h	equ	0xFEA
  6834                           fsr0l	equ	0xFE9
  6835                           wreg	equ	0xFE8
  6836                           indf1	equ	0xFE7
  6837                           fsr1h	equ	0xFE2
  6838                           fsr1l	equ	0xFE1
  6839                           indf2	equ	0xFDF
  6840                           postinc2	equ	0xFDE
  6841                           postdec2	equ	0xFDD
  6842                           plusw2	equ	0xFDB
  6843                           fsr2h	equ	0xFDA
  6844                           fsr2l	equ	0xFD9
  6845                           status	equ	0xFD8
  6846                           
  6847 ;; *************** function _USBStdSetCfgHandler *****************
  6848 ;; Defined at:
  6849 ;;		line 1968 in file "usb/src/usb_device.c"
  6850 ;; Parameters:    Size  Location     Type
  6851 ;;		None
  6852 ;; Auto vars:     Size  Location     Type
  6853 ;;  i               1   20[COMRAM] unsigned char 
  6854 ;; Return value:  Size  Location     Type
  6855 ;;                  1    wreg      void 
  6856 ;; Registers used:
  6857 ;;		wreg, fsr2l, fsr2h, status,2, status,0, prodl, prodh, cstack
  6858 ;; Tracked objects:
  6859 ;;		On entry : 0/0
  6860 ;;		On exit  : 0/0
  6861 ;;		Unchanged: 0/0
  6862 ;; Data sizes:     COMRAM   BANK0   BANK1   BANK2   BANK3   BANK4   BANK5   BANK6   BANK7
  6863 ;;      Params:         0       0       0       0       0       0       0       0       0
  6864 ;;      Locals:         1       0       0       0       0       0       0       0       0
  6865 ;;      Temps:          0       0       0       0       0       0       0       0       0
  6866 ;;      Totals:         1       0       0       0       0       0       0       0       0
  6867 ;;Total ram usage:        1 bytes
  6868 ;; Hardware stack levels used:    1
  6869 ;; Hardware stack levels required when called:    4
  6870 ;; This function calls:
  6871 ;;		_USER_USB_CALLBACK_EVENT_HANDLER
  6872 ;;		i2_memset
  6873 ;; This function is called by:
  6874 ;;		_USBCheckStdRequest
  6875 ;; This function uses a non-reentrant model
  6876 ;;
  6877                           
  6878                           	psect	text33
  6879  001BFA                     __ptext33:
  6880                           	opt stack 0
  6881  001BFA                     _USBStdSetCfgHandler:
  6882                           	opt stack 17
  6883                           
  6884                           ;usb_device.c: 1970: uint8_t i;
  6885                           ;usb_device.c: 1973: inPipes[0].info.bits.busy = 1;
  6886                           
  6887                           ;incstack = 0
  6888  001BFA  0100               	movlb	0	; () banked
  6889  001BFC  8F85               	bsf	(_inPipes+3)& (0+255),7,b	;volatile
  6890                           
  6891                           ; BSR set to: 0
  6892                           ;usb_device.c: 1976: memset((void*)&UEP1,0x00,(3));;
  6893  001BFE  0E71               	movlw	113
  6894  001C00  6E01               	movwf	i2memset@p1,c
  6895  001C02  0E0F               	movlw	15
  6896  001C04  6E02               	movwf	i2memset@p1+1,c
  6897  001C06  0E00               	movlw	0
  6898  001C08  6E04               	movwf	i2memset@c+1,c
  6899  001C0A  0E00               	movlw	0
  6900  001C0C  6E03               	movwf	i2memset@c,c
  6901  001C0E  0E00               	movlw	0
  6902  001C10  6E06               	movwf	i2memset@n+1,c
  6903  001C12  0E03               	movlw	3
  6904  001C14  6E05               	movwf	i2memset@n,c
  6905  001C16  ECE1  F013         	call	i2_memset	;wreg free
  6906                           
  6907                           ;usb_device.c: 1979: memset((void*)&BDT[0], 0x00, sizeof(BDT));
  6908  001C1A  0E00               	movlw	0
  6909  001C1C  6E01               	movwf	i2memset@p1,c
  6910  001C1E  0E04               	movlw	4
  6911  001C20  6E02               	movwf	i2memset@p1+1,c
  6912  001C22  0E00               	movlw	0
  6913  001C24  6E04               	movwf	i2memset@c+1,c
  6914  001C26  0E00               	movlw	0
  6915  001C28  6E03               	movwf	i2memset@c,c
  6916  001C2A  0E00               	movlw	0
  6917  001C2C  6E06               	movwf	i2memset@n+1,c
  6918  001C2E  0E40               	movlw	64
  6919  001C30  6E05               	movwf	i2memset@n,c
  6920  001C32  ECE1  F013         	call	i2_memset	;wreg free
  6921                           
  6922                           ;usb_device.c: 1982: UCONbits.PPBRST = 1;
  6923  001C36  8C6D               	bsf	3949,6,c	;volatile
  6924                           
  6925                           ;usb_device.c: 1987: for(i = 0; i < (uint8_t)(3+1u); i++)
  6926  001C38  0E00               	movlw	0
  6927  001C3A  6E15               	movwf	USBStdSetCfgHandler@i,c
  6928  001C3C                     i2l3413:
  6929  001C3C  0E03               	movlw	3
  6930  001C3E  6415               	cpfsgt	USBStdSetCfgHandler@i,c
  6931  001C40  D001               	goto	i2l301
  6932  001C42  D016               	goto	i2u236_40
  6933  001C44                     i2l301:
  6934                           
  6935                           ;usb_device.c: 1988: {
  6936                           ;usb_device.c: 1989: ep_data_in[i].Val = 0u;
  6937  001C44  5015               	movf	USBStdSetCfgHandler@i,w,c
  6938  001C46  0D01               	mullw	1
  6939  001C48  0E90               	movlw	low _ep_data_in
  6940  001C4A  24F3               	addwf	prodl,w,c
  6941  001C4C  6ED9               	movwf	fsr2l,c
  6942  001C4E  0E00               	movlw	high _ep_data_in
  6943  001C50  20F4               	addwfc	prodh,w,c
  6944  001C52  6EDA               	movwf	fsr2h,c
  6945  001C54  0E00               	movlw	0
  6946  001C56  6EDF               	movwf	indf2,c
  6947                           
  6948                           ;usb_device.c: 1990: ep_data_out[i].Val = 0u;
  6949  001C58  5015               	movf	USBStdSetCfgHandler@i,w,c
  6950  001C5A  0D01               	mullw	1
  6951  001C5C  0E8C               	movlw	low _ep_data_out
  6952  001C5E  24F3               	addwf	prodl,w,c
  6953  001C60  6ED9               	movwf	fsr2l,c
  6954  001C62  0E00               	movlw	high _ep_data_out
  6955  001C64  20F4               	addwfc	prodh,w,c
  6956  001C66  6EDA               	movwf	fsr2h,c
  6957  001C68  0E00               	movlw	0
  6958  001C6A  6EDF               	movwf	indf2,c
  6959  001C6C  2A15               	incf	USBStdSetCfgHandler@i,f,c
  6960  001C6E  D7E6               	goto	i2l3413
  6961  001C70                     i2u236_40:
  6962                           
  6963                           ;usb_device.c: 1991: }
  6964                           ;usb_device.c: 1994: memset((void*)&USBAlternateInterface,0x00,4);
  6965  001C70  0EAE               	movlw	low _USBAlternateInterface
  6966  001C72  6E01               	movwf	i2memset@p1,c
  6967  001C74  0E00               	movlw	high _USBAlternateInterface
  6968  001C76  6E02               	movwf	i2memset@p1+1,c
  6969  001C78  0E00               	movlw	0
  6970  001C7A  6E04               	movwf	i2memset@c+1,c
  6971  001C7C  0E00               	movlw	0
  6972  001C7E  6E03               	movwf	i2memset@c,c
  6973  001C80  0E00               	movlw	0
  6974  001C82  6E06               	movwf	i2memset@n+1,c
  6975  001C84  0E04               	movlw	4
  6976  001C86  6E05               	movwf	i2memset@n,c
  6977  001C88  ECE1  F013         	call	i2_memset	;wreg free
  6978                           
  6979                           ;usb_device.c: 1997: UCONbits.PPBRST = 0;
  6980  001C8C  9C6D               	bcf	3949,6,c	;volatile
  6981                           
  6982                           ;usb_device.c: 1999: pBDTEntryIn[0] = (volatile BDT_ENTRY*)&BDT[2];
  6983  001C8E  0E08               	movlw	8
  6984  001C90  0100               	movlb	0	; () banked
  6985  001C92  6F72               	movwf	_pBDTEntryIn& (0+255),b
  6986  001C94  0E04               	movlw	4
  6987  001C96  6F73               	movwf	(_pBDTEntryIn+1)& (0+255),b
  6988                           
  6989                           ; BSR set to: 0
  6990                           ;usb_device.c: 2002: pBDTEntryEP0OutCurrent = (volatile BDT_ENTRY*)&BDT[0];
  6991  001C98  0E00               	movlw	0
  6992  001C9A  6E41               	movwf	_pBDTEntryEP0OutCurrent,c
  6993  001C9C  0E04               	movlw	4
  6994  001C9E  6E42               	movwf	_pBDTEntryEP0OutCurrent+1,c
  6995                           
  6996                           ; BSR set to: 0
  6997                           ;usb_device.c: 2003: pBDTEntryEP0OutNext = pBDTEntryEP0OutCurrent;
  6998  001CA0  C041  F03F         	movff	_pBDTEntryEP0OutCurrent,_pBDTEntryEP0OutNext
  6999  001CA4  C042  F040         	movff	_pBDTEntryEP0OutCurrent+1,_pBDTEntryEP0OutNext+1
  7000                           
  7001                           ; BSR set to: 0
  7002                           ;usb_device.c: 2006: USBActiveConfiguration = SetupPkt.bConfigurationValue;
  7003  001CA8  C442 F05B          	movff	1090,_USBActiveConfiguration	;volatile
  7004                           
  7005                           ; BSR set to: 0
  7006                           ;usb_device.c: 2009: if(USBActiveConfiguration == 0)
  7007  001CAC  505B               	movf	_USBActiveConfiguration,w,c	;volatile
  7008  001CAE  A4D8               	btfss	status,2,c
  7009  001CB0  D003               	goto	i2l303
  7010                           
  7011                           ; BSR set to: 0
  7012                           ;usb_device.c: 2010: {
  7013                           ;usb_device.c: 2012: USBDeviceState = ADDRESS_STATE;
  7014  001CB2  0E10               	movlw	16
  7015  001CB4  6E52               	movwf	_USBDeviceState,c	;volatile
  7016                           
  7017                           ;usb_device.c: 2013: }
  7018  001CB6  0012               	return	
  7019  001CB8                     i2l303:
  7020                           
  7021                           ; BSR set to: 0
  7022                           ;usb_device.c: 2014: else
  7023                           ;usb_device.c: 2015: {
  7024                           ;usb_device.c: 2017: USER_USB_CALLBACK_EVENT_HANDLER(EVENT_CONFIGURED,(void*)&USBActiveC
      +                          onfiguration,1);
  7025                           
  7026                           ; BSR set to: 0
  7027  001CB8  0E00               	movlw	0
  7028  001CBA  6E0E               	movwf	USER_USB_CALLBACK_EVENT_HANDLER@event+1,c
  7029  001CBC  0E01               	movlw	1
  7030  001CBE  6E0D               	movwf	USER_USB_CALLBACK_EVENT_HANDLER@event,c
  7031  001CC0  0E5B               	movlw	low _USBActiveConfiguration
  7032  001CC2  6E0F               	movwf	USER_USB_CALLBACK_EVENT_HANDLER@pdata,c
  7033  001CC4  0E00               	movlw	high _USBActiveConfiguration
  7034  001CC6  6E10               	movwf	USER_USB_CALLBACK_EVENT_HANDLER@pdata+1,c
  7035  001CC8  0E00               	movlw	0
  7036  001CCA  6E12               	movwf	USER_USB_CALLBACK_EVENT_HANDLER@size+1,c
  7037  001CCC  0E01               	movlw	1
  7038  001CCE  6E11               	movwf	USER_USB_CALLBACK_EVENT_HANDLER@size,c
  7039  001CD0  EC42  F012         	call	_USER_USB_CALLBACK_EVENT_HANDLER	;wreg free
  7040                           
  7041                           ;usb_device.c: 2022: USBDeviceState = CONFIGURED_STATE;
  7042  001CD4  0E20               	movlw	32
  7043  001CD6  6E52               	movwf	_USBDeviceState,c	;volatile
  7044  001CD8  0012               	return	
  7045  001CDA                     __end_of_USBStdSetCfgHandler:
  7046                           	opt stack 0
  7047                           pclatu	equ	0xFFB
  7048                           pclath	equ	0xFFA
  7049                           tblptru	equ	0xFF8
  7050                           tblptrh	equ	0xFF7
  7051                           tblptrl	equ	0xFF6
  7052                           tablat	equ	0xFF5
  7053                           prodh	equ	0xFF4
  7054                           prodl	equ	0xFF3
  7055                           intcon	equ	0xFF2
  7056                           postinc0	equ	0xFEE
  7057                           fsr0h	equ	0xFEA
  7058                           fsr0l	equ	0xFE9
  7059                           wreg	equ	0xFE8
  7060                           indf1	equ	0xFE7
  7061                           fsr1h	equ	0xFE2
  7062                           fsr1l	equ	0xFE1
  7063                           indf2	equ	0xFDF
  7064                           postinc2	equ	0xFDE
  7065                           postdec2	equ	0xFDD
  7066                           plusw2	equ	0xFDB
  7067                           fsr2h	equ	0xFDA
  7068                           fsr2l	equ	0xFD9
  7069                           status	equ	0xFD8
  7070                           
  7071 ;; *************** function i2_memset *****************
  7072 ;; Defined at:
  7073 ;;		line 8 in file "C:\Program Files\Microchip\xc8\v1.45\sources\common\memset.c"
  7074 ;; Parameters:    Size  Location     Type
  7075 ;;  p1              2    0[COMRAM] PTR void 
  7076 ;;		 -> USBAlternateInterface(4), BDT(64), UEP1(1), 
  7077 ;;  c               2    2[COMRAM] int 
  7078 ;;  n               2    4[COMRAM] unsigned int 
  7079 ;; Auto vars:     Size  Location     Type
  7080 ;;  memset          2    6[COMRAM] PTR unsigned char 
  7081 ;;		 -> USBAlternateInterface(4), BDT(64), UEP1(1), 
  7082 ;; Return value:  Size  Location     Type
  7083 ;;                  2    0[COMRAM] PTR void 
  7084 ;; Registers used:
  7085 ;;		wreg, fsr2l, fsr2h, status,2, status,0
  7086 ;; Tracked objects:
  7087 ;;		On entry : 0/0
  7088 ;;		On exit  : 0/0
  7089 ;;		Unchanged: 0/0
  7090 ;; Data sizes:     COMRAM   BANK0   BANK1   BANK2   BANK3   BANK4   BANK5   BANK6   BANK7
  7091 ;;      Params:         6       0       0       0       0       0       0       0       0
  7092 ;;      Locals:         2       0       0       0       0       0       0       0       0
  7093 ;;      Temps:          0       0       0       0       0       0       0       0       0
  7094 ;;      Totals:         8       0       0       0       0       0       0       0       0
  7095 ;;Total ram usage:        8 bytes
  7096 ;; Hardware stack levels used:    1
  7097 ;; This function calls:
  7098 ;;		Nothing
  7099 ;; This function is called by:
  7100 ;;		_USBStdSetCfgHandler
  7101 ;;		i2_USBDeviceInit
  7102 ;; This function uses a non-reentrant model
  7103 ;;
  7104                           
  7105                           	psect	text34
  7106  0027C2                     __ptext34:
  7107                           	opt stack 0
  7108  0027C2                     i2_memset:
  7109                           	opt stack 23
  7110                           
  7111                           ;incstack = 0
  7112  0027C2  C001  F007         	movff	i2memset@p1,i2memset@p
  7113  0027C6  C002  F008         	movff	i2memset@p1+1,i2memset@p+1
  7114  0027CA  D008               	goto	i2l1299
  7115  0027CC                     i2l3343:
  7116  0027CC  C007  FFD9         	movff	i2memset@p,fsr2l
  7117  0027D0  C008  FFDA         	movff	i2memset@p+1,fsr2h
  7118  0027D4  C003  FFDF         	movff	i2memset@c,indf2
  7119  0027D8  4A07               	infsnz	i2memset@p,f,c
  7120  0027DA  2A08               	incf	i2memset@p+1,f,c
  7121  0027DC                     i2l1299:
  7122  0027DC  0605               	decf	i2memset@n,f,c
  7123  0027DE  A0D8               	btfss	status,0,c
  7124  0027E0  0606               	decf	i2memset@n+1,f,c
  7125  0027E2  2805               	incf	i2memset@n,w,c
  7126  0027E4  E1F3               	bnz	i2l3343
  7127  0027E6  2806               	incf	i2memset@n+1,w,c
  7128  0027E8  B4D8               	btfsc	status,2,c
  7129  0027EA  0012               	return	
  7130  0027EC  D7EF               	goto	i2l1300
  7131  0027EE                     __end_ofi2_memset:
  7132                           	opt stack 0
  7133                           pclatu	equ	0xFFB
  7134                           pclath	equ	0xFFA
  7135                           tblptru	equ	0xFF8
  7136                           tblptrh	equ	0xFF7
  7137                           tblptrl	equ	0xFF6
  7138                           tablat	equ	0xFF5
  7139                           prodh	equ	0xFF4
  7140                           prodl	equ	0xFF3
  7141                           intcon	equ	0xFF2
  7142                           postinc0	equ	0xFEE
  7143                           fsr0h	equ	0xFEA
  7144                           fsr0l	equ	0xFE9
  7145                           wreg	equ	0xFE8
  7146                           indf1	equ	0xFE7
  7147                           fsr1h	equ	0xFE2
  7148                           fsr1l	equ	0xFE1
  7149                           indf2	equ	0xFDF
  7150                           postinc2	equ	0xFDE
  7151                           postdec2	equ	0xFDD
  7152                           plusw2	equ	0xFDB
  7153                           fsr2h	equ	0xFDA
  7154                           fsr2l	equ	0xFD9
  7155                           status	equ	0xFD8
  7156                           
  7157 ;; *************** function _USBStdGetStatusHandler *****************
  7158 ;; Defined at:
  7159 ;;		line 2129 in file "usb/src/usb_device.c"
  7160 ;; Parameters:    Size  Location     Type
  7161 ;;		None
  7162 ;; Auto vars:     Size  Location     Type
  7163 ;;  p               2    1[COMRAM] PTR struct __BDT
  7164 ;;		 -> RAM(2047), NULL(0), BDT(64), 
  7165 ;; Return value:  Size  Location     Type
  7166 ;;                  1    wreg      void 
  7167 ;; Registers used:
  7168 ;;		wreg, fsr2l, fsr2h, status,2, status,0, prodl, prodh
  7169 ;; Tracked objects:
  7170 ;;		On entry : 0/0
  7171 ;;		On exit  : 0/0
  7172 ;;		Unchanged: 0/0
  7173 ;; Data sizes:     COMRAM   BANK0   BANK1   BANK2   BANK3   BANK4   BANK5   BANK6   BANK7
  7174 ;;      Params:         0       0       0       0       0       0       0       0       0
  7175 ;;      Locals:         2       0       0       0       0       0       0       0       0
  7176 ;;      Temps:          1       0       0       0       0       0       0       0       0
  7177 ;;      Totals:         3       0       0       0       0       0       0       0       0
  7178 ;;Total ram usage:        3 bytes
  7179 ;; Hardware stack levels used:    1
  7180 ;; This function calls:
  7181 ;;		Nothing
  7182 ;; This function is called by:
  7183 ;;		_USBCheckStdRequest
  7184 ;; This function uses a non-reentrant model
  7185 ;;
  7186                           
  7187                           	psect	text35
  7188  00208A                     __ptext35:
  7189                           	opt stack 0
  7190  00208A                     _USBStdGetStatusHandler:
  7191                           	opt stack 21
  7192                           
  7193                           ;usb_device.c: 2131: CtrlTrfData[0] = 0;
  7194                           
  7195                           ;incstack = 0
  7196  00208A  0E00               	movlw	0
  7197  00208C  0104               	movlb	4	; () banked
  7198  00208E  6F48               	movwf	72,b	;volatile
  7199                           
  7200                           ;usb_device.c: 2132: CtrlTrfData[1] = 0;
  7201  002090  0E00               	movlw	0
  7202  002092  6F49               	movwf	73,b	;volatile
  7203                           
  7204                           ;usb_device.c: 2134: switch(SetupPkt.Recipient)
  7205  002094  D038               	goto	i2l322
  7206  002096                     i2l323:
  7207                           
  7208                           ; BSR set to: 4
  7209                           ;usb_device.c: 2137: inPipes[0].info.bits.busy = 1;
  7210  002096  0100               	movlb	0	; () banked
  7211  002098  8F85               	bsf	(_inPipes+3)& (0+255),7,b	;volatile
  7212                           
  7213                           ;usb_device.c: 2145: }
  7214                           ;usb_device.c: 2147: if(RemoteWakeup == 1)
  7215                           
  7216                           ; BSR set to: 4
  7217                           
  7218                           ; BSR set to: 0
  7219                           ;usb_device.c: 2143: {
  7220                           ;usb_device.c: 2144: CtrlTrfData[0]|=0x01;
  7221                           
  7222                           ;usb_device.c: 2142: if(0 == 1)
  7223  00209A  044F               	decf	_RemoteWakeup,w,c	;volatile
  7224  00209C  A4D8               	btfss	status,2,c
  7225  00209E  D03E               	goto	i2l326
  7226                           
  7227                           ;usb_device.c: 2148: {
  7228                           ;usb_device.c: 2149: CtrlTrfData[0]|=0x02;
  7229  0020A0  0104               	movlb	4	; () banked
  7230  0020A2  8348               	bsf	72,1,b	;volatile
  7231                           
  7232                           ; BSR set to: 4
  7233                           ;usb_device.c: 2150: }
  7234                           ;usb_device.c: 2151: break;
  7235  0020A4  D03B               	goto	i2l326
  7236  0020A6                     i2l327:
  7237                           
  7238                           ; BSR set to: 4
  7239                           ;usb_device.c: 2153: inPipes[0].info.bits.busy = 1;
  7240  0020A6  0100               	movlb	0	; () banked
  7241  0020A8  8F85               	bsf	(_inPipes+3)& (0+255),7,b	;volatile
  7242                           
  7243                           ;usb_device.c: 2154: break;
  7244  0020AA  D038               	goto	i2l326
  7245  0020AC                     i2l328:
  7246                           
  7247                           ; BSR set to: 4
  7248                           ;usb_device.c: 2156: inPipes[0].info.bits.busy = 1;
  7249  0020AC  0100               	movlb	0	; () banked
  7250  0020AE  8F85               	bsf	(_inPipes+3)& (0+255),7,b	;volatile
  7251                           
  7252                           ;usb_device.c: 2160: {
  7253                           ;usb_device.c: 2161: BDT_ENTRY *p;
  7254                           ;usb_device.c: 2163: if(SetupPkt.EPDir == 0)
  7255  0020B0  0104               	movlb	4	; () banked
  7256  0020B2  BF44               	btfsc	68,7,b	;volatile
  7257  0020B4  D00A               	goto	i2l329
  7258                           
  7259                           ; BSR set to: 4
  7260                           ;usb_device.c: 2164: {
  7261                           ;usb_device.c: 2165: p = (BDT_ENTRY*)pBDTEntryOut[SetupPkt.EPNum];
  7262  0020B6  5144               	movf	68,w,b	;volatile
  7263  0020B8  0B0F               	andlw	15
  7264  0020BA  6E01               	movwf	??_USBStdGetStatusHandler& (0+255),c
  7265  0020BC  5001               	movf	??_USBStdGetStatusHandler,w,c
  7266  0020BE  0D02               	mullw	2
  7267  0020C0  0E7A               	movlw	low _pBDTEntryOut
  7268  0020C2  24F3               	addwf	prodl,w,c
  7269  0020C4  6ED9               	movwf	fsr2l,c
  7270  0020C6  0E00               	movlw	high _pBDTEntryOut
  7271  0020C8  D009               	goto	L5
  7272  0020CA                     i2l329:
  7273                           
  7274                           ; BSR set to: 4
  7275                           ;usb_device.c: 2167: else
  7276                           ;usb_device.c: 2168: {
  7277                           ;usb_device.c: 2169: p = (BDT_ENTRY*)pBDTEntryIn[SetupPkt.EPNum];
  7278                           
  7279                           ; BSR set to: 4
  7280  0020CA  5144               	movf	68,w,b	;volatile
  7281  0020CC  0B0F               	andlw	15
  7282  0020CE  6E01               	movwf	??_USBStdGetStatusHandler& (0+255),c
  7283  0020D0  5001               	movf	??_USBStdGetStatusHandler,w,c
  7284  0020D2  0D02               	mullw	2
  7285  0020D4  0E72               	movlw	low _pBDTEntryIn
  7286  0020D6  24F3               	addwf	prodl,w,c
  7287  0020D8  6ED9               	movwf	fsr2l,c
  7288  0020DA  0E00               	movlw	high _pBDTEntryIn
  7289  0020DC                     L5:
  7290  0020DC  20F4               	addwfc	prodh,w,c
  7291  0020DE  6EDA               	movwf	fsr2h,c
  7292  0020E0  CFDE F002          	movff	postinc2,USBStdGetStatusHandler@p
  7293  0020E4  CFDD F003          	movff	postdec2,USBStdGetStatusHandler@p+1
  7294                           
  7295                           ; BSR set to: 4
  7296                           ;usb_device.c: 2170: }
  7297                           ;usb_device.c: 2172: if((p->STAT.UOWN == 1) && (p->STAT.BSTALL == 1))
  7298                           
  7299                           ; BSR set to: 4
  7300  0020E8  C002  FFD9         	movff	USBStdGetStatusHandler@p,fsr2l
  7301  0020EC  C003  FFDA         	movff	USBStdGetStatusHandler@p+1,fsr2h
  7302  0020F0  AEDF               	btfss	indf2,7,c
  7303  0020F2  D014               	goto	i2l326
  7304                           
  7305                           ; BSR set to: 4
  7306  0020F4  C002  FFD9         	movff	USBStdGetStatusHandler@p,fsr2l
  7307  0020F8  C003  FFDA         	movff	USBStdGetStatusHandler@p+1,fsr2h
  7308  0020FC  A4DF               	btfss	indf2,2,c
  7309  0020FE  D00E               	goto	i2l326
  7310                           
  7311                           ; BSR set to: 4
  7312                           ;usb_device.c: 2173: CtrlTrfData[0]=0x01;
  7313  002100  0E01               	movlw	1
  7314  002102  6F48               	movwf	72,b	;volatile
  7315                           
  7316                           ; BSR set to: 4
  7317                           ;usb_device.c: 2175: }
  7318                           ;usb_device.c: 2176: }
  7319                           
  7320                           ; BSR set to: 4
  7321                           ;usb_device.c: 2174: break;
  7322  002104  D00B               	goto	i2l326
  7323  002106                     i2l322:
  7324                           
  7325                           ; BSR set to: 4
  7326                           
  7327                           ; BSR set to: 4
  7328  002106  5140               	movf	64,w,b	;volatile
  7329  002108  0B1F               	andlw	31
  7330                           
  7331                           ; Switch size 1, requested type "space"
  7332                           ; Number of cases is 3, Range of values is 0 to 2
  7333                           ; switch strategies available:
  7334                           ; Name         Instructions Cycles
  7335                           ; simple_byte           10     6 (average)
  7336                           ;	Chosen strategy is simple_byte
  7337  00210A  0A00               	xorlw	0	; case 0
  7338  00210C  B4D8               	btfsc	status,2,c
  7339  00210E  D7C3               	goto	i2l323
  7340  002110  0A01               	xorlw	1	; case 1
  7341  002112  B4D8               	btfsc	status,2,c
  7342  002114  D7C8               	goto	i2l327
  7343  002116  0A03               	xorlw	3	; case 2
  7344  002118  B4D8               	btfsc	status,2,c
  7345  00211A  D7C8               	goto	i2l328
  7346  00211C                     i2l326:
  7347                           
  7348                           ;usb_device.c: 2178: if(inPipes[0].info.bits.busy == 1)
  7349  00211C  0100               	movlb	0	; () banked
  7350  00211E  AF85               	btfss	(_inPipes+3)& (0+255),7,b	;volatile
  7351  002120  0012               	return	
  7352                           
  7353                           ; BSR set to: 0
  7354                           ;usb_device.c: 2179: {
  7355                           ;usb_device.c: 2180: inPipes[0].pSrc.bRam = (uint8_t*)&CtrlTrfData;
  7356  002122  0E48               	movlw	72
  7357  002124  6F82               	movwf	_inPipes& (0+255),b	;volatile
  7358  002126  0E04               	movlw	4
  7359  002128  6F83               	movwf	(_inPipes+1)& (0+255),b	;volatile
  7360                           
  7361                           ; BSR set to: 0
  7362                           ;usb_device.c: 2181: inPipes[0].info.bits.ctrl_trf_mem = 0x01;
  7363  00212A  8185               	bsf	(_inPipes+3)& (0+255),0,b	;volatile
  7364                           
  7365                           ; BSR set to: 0
  7366                           ;usb_device.c: 2182: inPipes[0].wCount.v[0] = 2;
  7367  00212C  0E02               	movlw	2
  7368  00212E  6F86               	movwf	(_inPipes+4)& (0+255),b	;volatile
  7369  002130  0012               	return	
  7370  002132                     __end_of_USBStdGetStatusHandler:
  7371                           	opt stack 0
  7372                           pclatu	equ	0xFFB
  7373                           pclath	equ	0xFFA
  7374                           tblptru	equ	0xFF8
  7375                           tblptrh	equ	0xFF7
  7376                           tblptrl	equ	0xFF6
  7377                           tablat	equ	0xFF5
  7378                           prodh	equ	0xFF4
  7379                           prodl	equ	0xFF3
  7380                           intcon	equ	0xFF2
  7381                           postinc0	equ	0xFEE
  7382                           fsr0h	equ	0xFEA
  7383                           fsr0l	equ	0xFE9
  7384                           wreg	equ	0xFE8
  7385                           indf1	equ	0xFE7
  7386                           fsr1h	equ	0xFE2
  7387                           fsr1l	equ	0xFE1
  7388                           indf2	equ	0xFDF
  7389                           postinc2	equ	0xFDE
  7390                           postdec2	equ	0xFDD
  7391                           plusw2	equ	0xFDB
  7392                           fsr2h	equ	0xFDA
  7393                           fsr2l	equ	0xFD9
  7394                           status	equ	0xFD8
  7395                           
  7396 ;; *************** function _USBStdGetDscHandler *****************
  7397 ;; Defined at:
  7398 ;;		line 2043 in file "usb/src/usb_device.c"
  7399 ;; Parameters:    Size  Location     Type
  7400 ;;		None
  7401 ;; Auto vars:     Size  Location     Type
  7402 ;;		None
  7403 ;; Return value:  Size  Location     Type
  7404 ;;                  1    wreg      void 
  7405 ;; Registers used:
  7406 ;;		wreg, fsr1l, fsr1h, status,2, status,0, tblptrl, tblptrh, tblptru, prodl, prodh
  7407 ;; Tracked objects:
  7408 ;;		On entry : 0/0
  7409 ;;		On exit  : 0/0
  7410 ;;		Unchanged: 0/0
  7411 ;; Data sizes:     COMRAM   BANK0   BANK1   BANK2   BANK3   BANK4   BANK5   BANK6   BANK7
  7412 ;;      Params:         0       0       0       0       0       0       0       0       0
  7413 ;;      Locals:         0       0       0       0       0       0       0       0       0
  7414 ;;      Temps:          2       0       0       0       0       0       0       0       0
  7415 ;;      Totals:         2       0       0       0       0       0       0       0       0
  7416 ;;Total ram usage:        2 bytes
  7417 ;; Hardware stack levels used:    1
  7418 ;; This function calls:
  7419 ;;		Nothing
  7420 ;; This function is called by:
  7421 ;;		_USBCheckStdRequest
  7422 ;; This function uses a non-reentrant model
  7423 ;;
  7424                           
  7425                           	psect	text36
  7426  0014CE                     __ptext36:
  7427                           	opt stack 0
  7428  0014CE                     _USBStdGetDscHandler:
  7429                           	opt stack 21
  7430                           
  7431                           ;usb_device.c: 2045: if(SetupPkt.bmRequestType == 0x80)
  7432                           
  7433                           ; BSR set to: 0
  7434                           ;incstack = 0
  7435  0014CE  0E80               	movlw	128
  7436  0014D0  0104               	movlb	4	; () banked
  7437  0014D2  1940               	xorwf	64,w,b	;volatile
  7438  0014D4  A4D8               	btfss	status,2,c
  7439  0014D6  0012               	return	
  7440                           
  7441                           ; BSR set to: 4
  7442                           ;usb_device.c: 2046: {
  7443                           ;usb_device.c: 2047: inPipes[0].info.Val = 0x00 | 0x80 | 0x40;
  7444  0014D8  0EC0               	movlw	192
  7445  0014DA  0100               	movlb	0	; () banked
  7446  0014DC  6F85               	movwf	(_inPipes+3)& (0+255),b	;volatile
  7447                           
  7448                           ;usb_device.c: 2049: switch(SetupPkt.bDescriptorType)
  7449  0014DE  D082               	goto	i2l309
  7450  0014E0                     
  7451                           ;usb_device.c: 2055: inPipes[0].pSrc.bRom = (const uint8_t*)&device_dsc;
  7452                           
  7453                           ; BSR set to: 0
  7454  0014E0  0EBE               	movlw	low _device_dsc
  7455  0014E2  0100               	movlb	0	; () banked
  7456  0014E4  6F82               	movwf	_inPipes& (0+255),b	;volatile
  7457  0014E6  0E08               	movlw	high _device_dsc
  7458  0014E8  6F83               	movwf	(_inPipes+1)& (0+255),b	;volatile
  7459                           
  7460                           ; BSR set to: 0
  7461                           ;usb_device.c: 2057: inPipes[0].wCount.Val = sizeof(device_dsc);
  7462  0014EA  0E00               	movlw	0
  7463  0014EC  6F87               	movwf	(_inPipes+5)& (0+255),b	;volatile
  7464  0014EE  0E12               	movlw	18
  7465  0014F0  6F86               	movwf	(_inPipes+4)& (0+255),b	;volatile
  7466                           
  7467                           ;usb_device.c: 2058: break;
  7468  0014F2  0012               	return	
  7469  0014F4                     
  7470                           ;usb_device.c: 2063: if(SetupPkt.bDscIndex < 1)
  7471                           
  7472                           ; BSR set to: 0
  7473  0014F4  0104               	movlb	4	; () banked
  7474  0014F6  5142               	movf	66,w,b	;volatile
  7475  0014F8  A4D8               	btfss	status,2,c
  7476  0014FA  D040               	goto	i2l313
  7477                           
  7478                           ; BSR set to: 4
  7479                           ;usb_device.c: 2064: {
  7480                           ;usb_device.c: 2066: inPipes[0].pSrc.bRom = *(USB_CD_Ptr+SetupPkt.bDscIndex);
  7481  0014FC  5142               	movf	66,w,b	;volatile
  7482  0014FE  0D02               	mullw	2
  7483  001500  0E11               	movlw	low _USB_CD_Ptr
  7484  001502  24F3               	addwf	prodl,w,c
  7485  001504  6EF6               	movwf	tblptrl,c
  7486  001506  0E08               	movlw	high _USB_CD_Ptr
  7487  001508  20F4               	addwfc	prodh,w,c
  7488  00150A  6EF7               	movwf	tblptrh,c
  7489  00150C                     	if	0	;There are less than 3 active tblptr bytes
  7490  00150C                     	endif
  7491  00150C  0009               	tblrd		*+
  7492  00150E  CFF5 F082          	movff	tablat,_inPipes	;volatile
  7493  001512  000A               	tblrd		*-
  7494  001514  CFF5 F083          	movff	tablat,_inPipes+1	;volatile
  7495                           
  7496                           ; BSR set to: 4
  7497                           ;usb_device.c: 2074: inPipes[0].wCount.byte.LB = *(inPipes[0].pSrc.bRom+2);
  7498  001518  0E02               	movlw	2
  7499  00151A  0100               	movlb	0	; () banked
  7500  00151C  2582               	addwf	_inPipes& (0+255),w,b	;volatile
  7501  00151E  6E01               	movwf	??_USBStdGetDscHandler& (0+255),c
  7502  001520  0E00               	movlw	0
  7503  001522  2183               	addwfc	(_inPipes+1)& (0+255),w,b	;volatile
  7504  001524  6E02               	movwf	(??_USBStdGetDscHandler+1)& (0+255),c
  7505  001526  C001  FFF6         	movff	??_USBStdGetDscHandler,tblptrl
  7506  00152A  C002  FFF7         	movff	??_USBStdGetDscHandler+1,tblptrh
  7507  00152E  6AF8               	clrf	tblptru,c
  7508  001530  0E07               	movlw	(high __ramtop+-1)
  7509  001532  64F7               	cpfsgt	tblptrh,c
  7510  001534  D003               	bra	i2u240_47
  7511  001536  0008               	tblrd		*
  7512  001538  50F5               	movf	tablat,w,c
  7513  00153A  D005               	bra	i2u240_40
  7514  00153C                     i2u240_47:
  7515  00153C  CFF6 FFE1          	movff	tblptrl,fsr1l
  7516  001540  CFF7 FFE2          	movff	tblptrh,fsr1h
  7517  001544  50E7               	movf	indf1,w,c
  7518  001546                     i2u240_40:
  7519  001546  0100               	movlb	0	; () banked
  7520  001548  6F86               	movwf	(_inPipes+4)& (0+255),b	;volatile
  7521                           
  7522                           ; BSR set to: 0
  7523                           ;usb_device.c: 2075: inPipes[0].wCount.byte.HB = *(inPipes[0].pSrc.bRom+3);
  7524  00154A  0E03               	movlw	3
  7525  00154C  2582               	addwf	_inPipes& (0+255),w,b	;volatile
  7526  00154E  6E01               	movwf	??_USBStdGetDscHandler& (0+255),c
  7527  001550  0E00               	movlw	0
  7528  001552  2183               	addwfc	(_inPipes+1)& (0+255),w,b	;volatile
  7529  001554  6E02               	movwf	(??_USBStdGetDscHandler+1)& (0+255),c
  7530  001556  C001  FFF6         	movff	??_USBStdGetDscHandler,tblptrl
  7531  00155A  C002  FFF7         	movff	??_USBStdGetDscHandler+1,tblptrh
  7532  00155E  6AF8               	clrf	tblptru,c
  7533  001560  0E07               	movlw	(high __ramtop+-1)
  7534  001562  64F7               	cpfsgt	tblptrh,c
  7535  001564  D003               	bra	i2u241_47
  7536  001566  0008               	tblrd		*
  7537  001568  50F5               	movf	tablat,w,c
  7538  00156A  D005               	bra	i2u241_40
  7539  00156C                     i2u241_47:
  7540  00156C  CFF6 FFE1          	movff	tblptrl,fsr1l
  7541  001570  CFF7 FFE2          	movff	tblptrh,fsr1h
  7542  001574  50E7               	movf	indf1,w,c
  7543  001576                     i2u241_40:
  7544  001576  0100               	movlb	0	; () banked
  7545  001578  6F87               	movwf	(_inPipes+5)& (0+255),b	;volatile
  7546                           
  7547                           ;usb_device.c: 2076: }
  7548  00157A  0012               	return	
  7549  00157C                     i2l313:
  7550                           
  7551                           ;usb_device.c: 2077: else
  7552                           ;usb_device.c: 2078: {
  7553                           ;usb_device.c: 2079: inPipes[0].info.Val = 0;
  7554                           
  7555                           ; BSR set to: 0
  7556  00157C  0E00               	movlw	0
  7557  00157E  0100               	movlb	0	; () banked
  7558  001580  6F85               	movwf	(_inPipes+3)& (0+255),b	;volatile
  7559                           
  7560                           ; BSR set to: 0
  7561                           ;usb_device.c: 2080: }
  7562                           ;usb_device.c: 2081: break;
  7563  001582  0012               	return	
  7564  001584                     
  7565                           ;usb_device.c: 2086: if(SetupPkt.bDscIndex<3)
  7566                           
  7567                           ; BSR set to: 0
  7568  001584  0E03               	movlw	3
  7569  001586  0104               	movlb	4	; () banked
  7570  001588  6142               	cpfslt	66,b	;volatile
  7571  00158A  D024               	goto	i2l316
  7572                           
  7573                           ; BSR set to: 4
  7574                           ;usb_device.c: 2087: {
  7575                           ;usb_device.c: 2089: inPipes[0].pSrc.bRom = *(USB_SD_Ptr+SetupPkt.bDscIndex);
  7576  00158C  5142               	movf	66,w,b	;volatile
  7577  00158E  0D02               	mullw	2
  7578  001590  0E0B               	movlw	low _USB_SD_Ptr
  7579  001592  24F3               	addwf	prodl,w,c
  7580  001594  6EF6               	movwf	tblptrl,c
  7581  001596  0E08               	movlw	high _USB_SD_Ptr
  7582  001598  20F4               	addwfc	prodh,w,c
  7583  00159A  6EF7               	movwf	tblptrh,c
  7584  00159C                     	if	0	;There are less than 3 active tblptr bytes
  7585  00159C                     	endif
  7586  00159C  0009               	tblrd		*+
  7587  00159E  CFF5 F082          	movff	tablat,_inPipes	;volatile
  7588  0015A2  000A               	tblrd		*-
  7589  0015A4  CFF5 F083          	movff	tablat,_inPipes+1	;volatile
  7590                           
  7591                           ; BSR set to: 4
  7592                           ;usb_device.c: 2091: inPipes[0].wCount.Val = *inPipes[0].pSrc.bRom;
  7593  0015A8  C082  FFF6         	movff	_inPipes,tblptrl	;volatile
  7594  0015AC  C083  FFF7         	movff	_inPipes+1,tblptrh	;volatile
  7595  0015B0  6AF8               	clrf	tblptru,c
  7596  0015B2  0E07               	movlw	(high __ramtop+-1)
  7597  0015B4  64F7               	cpfsgt	tblptrh,c
  7598  0015B6  D003               	bra	i2u243_47
  7599  0015B8  0008               	tblrd		*
  7600  0015BA  50F5               	movf	tablat,w,c
  7601  0015BC  D005               	bra	i2u243_40
  7602  0015BE                     i2u243_47:
  7603  0015BE  CFF6 FFE1          	movff	tblptrl,fsr1l
  7604  0015C2  CFF7 FFE2          	movff	tblptrh,fsr1h
  7605  0015C6  50E7               	movf	indf1,w,c
  7606  0015C8                     i2u243_40:
  7607  0015C8  6E01               	movwf	??_USBStdGetDscHandler& (0+255),c
  7608  0015CA  5001               	movf	??_USBStdGetDscHandler,w,c
  7609  0015CC  0100               	movlb	0	; () banked
  7610  0015CE  6F86               	movwf	(_inPipes+4)& (0+255),b	;volatile
  7611  0015D0  6B87               	clrf	(_inPipes+5)& (0+255),b	;volatile
  7612                           
  7613                           ;usb_device.c: 2092: }
  7614  0015D2  0012               	return	
  7615  0015D4                     i2l316:
  7616                           
  7617                           ;usb_device.c: 2102: else
  7618                           ;usb_device.c: 2103: {
  7619                           ;usb_device.c: 2104: inPipes[0].info.Val = 0;
  7620                           
  7621                           ; BSR set to: 0
  7622  0015D4  0E00               	movlw	0
  7623  0015D6  0100               	movlb	0	; () banked
  7624  0015D8  6F85               	movwf	(_inPipes+3)& (0+255),b	;volatile
  7625                           
  7626                           ; BSR set to: 0
  7627                           ;usb_device.c: 2105: }
  7628                           ;usb_device.c: 2106: break;
  7629  0015DA  0012               	return	
  7630  0015DC                     
  7631                           ;usb_device.c: 2108: inPipes[0].info.Val = 0;
  7632                           
  7633                           ; BSR set to: 0
  7634  0015DC  0E00               	movlw	0
  7635  0015DE  0100               	movlb	0	; () banked
  7636  0015E0  6F85               	movwf	(_inPipes+3)& (0+255),b	;volatile
  7637                           
  7638                           ; BSR set to: 0
  7639                           ;usb_device.c: 2110: }
  7640                           
  7641                           ;usb_device.c: 2109: break;
  7642  0015E2  0012               	return	
  7643  0015E4                     i2l309:
  7644                           
  7645                           ; BSR set to: 0
  7646                           
  7647                           ; BSR set to: 0
  7648  0015E4  0104               	movlb	4	; () banked
  7649  0015E6  5143               	movf	67,w,b	;volatile
  7650                           
  7651                           ; Switch size 1, requested type "space"
  7652                           ; Number of cases is 3, Range of values is 1 to 3
  7653                           ; switch strategies available:
  7654                           ; Name         Instructions Cycles
  7655                           ; simple_byte           10     6 (average)
  7656                           ;	Chosen strategy is simple_byte
  7657  0015E8  0A01               	xorlw	1	; case 1
  7658  0015EA  B4D8               	btfsc	status,2,c
  7659  0015EC  D779               	goto	i2l310
  7660  0015EE  0A03               	xorlw	3	; case 2
  7661  0015F0  B4D8               	btfsc	status,2,c
  7662  0015F2  D780               	goto	i2l312
  7663  0015F4  0A01               	xorlw	1	; case 3
  7664  0015F6  B4D8               	btfsc	status,2,c
  7665  0015F8  D7C5               	goto	i2l315
  7666  0015FA  D7F0               	goto	i2l318
  7667  0015FC                     __end_of_USBStdGetDscHandler:
  7668                           	opt stack 0
  7669                           pclatu	equ	0xFFB
  7670                           pclath	equ	0xFFA
  7671                           tblptru	equ	0xFF8
  7672                           tblptrh	equ	0xFF7
  7673                           tblptrl	equ	0xFF6
  7674                           tablat	equ	0xFF5
  7675                           prodh	equ	0xFF4
  7676                           prodl	equ	0xFF3
  7677                           intcon	equ	0xFF2
  7678                           postinc0	equ	0xFEE
  7679                           fsr0h	equ	0xFEA
  7680                           fsr0l	equ	0xFE9
  7681                           wreg	equ	0xFE8
  7682                           indf1	equ	0xFE7
  7683                           fsr1h	equ	0xFE2
  7684                           fsr1l	equ	0xFE1
  7685                           indf2	equ	0xFDF
  7686                           postinc2	equ	0xFDE
  7687                           postdec2	equ	0xFDD
  7688                           plusw2	equ	0xFDB
  7689                           fsr2h	equ	0xFDA
  7690                           fsr2l	equ	0xFD9
  7691                           status	equ	0xFD8
  7692                           
  7693 ;; *************** function _USBStdFeatureReqHandler *****************
  7694 ;; Defined at:
  7695 ;;		line 2754 in file "usb/src/usb_device.c"
  7696 ;; Parameters:    Size  Location     Type
  7697 ;;		None
  7698 ;; Auto vars:     Size  Location     Type
  7699 ;;  p               2   24[COMRAM] PTR struct __BDT
  7700 ;;		 -> RAM(2047), NULL(0), BDT(64), 
  7701 ;;  pUEP            2   21[COMRAM] PTR unsigned char 
  7702 ;;		 -> UEP0(1), 
  7703 ;;  current_ep_d    1   23[COMRAM] struct .
  7704 ;; Return value:  Size  Location     Type
  7705 ;;                  1    wreg      void 
  7706 ;; Registers used:
  7707 ;;		wreg, fsr2l, fsr2h, status,2, status,0, prodl, prodh, cstack
  7708 ;; Tracked objects:
  7709 ;;		On entry : 0/0
  7710 ;;		On exit  : 0/0
  7711 ;;		Unchanged: 0/0
  7712 ;; Data sizes:     COMRAM   BANK0   BANK1   BANK2   BANK3   BANK4   BANK5   BANK6   BANK7
  7713 ;;      Params:         0       0       0       0       0       0       0       0       0
  7714 ;;      Locals:         5       0       0       0       0       0       0       0       0
  7715 ;;      Temps:          1       0       0       0       0       0       0       0       0
  7716 ;;      Totals:         6       0       0       0       0       0       0       0       0
  7717 ;;Total ram usage:        6 bytes
  7718 ;; Hardware stack levels used:    1
  7719 ;; Hardware stack levels required when called:    4
  7720 ;; This function calls:
  7721 ;;		_USER_USB_CALLBACK_EVENT_HANDLER
  7722 ;; This function is called by:
  7723 ;;		_USBCheckStdRequest
  7724 ;; This function uses a non-reentrant model
  7725 ;;
  7726                           
  7727                           	psect	text37
  7728  000EA4                     __ptext37:
  7729                           	opt stack 0
  7730  000EA4                     _USBStdFeatureReqHandler:
  7731                           	opt stack 17
  7732                           
  7733                           ;usb_device.c: 2756: BDT_ENTRY *p;
  7734                           ;usb_device.c: 2757: EP_STATUS current_ep_data;
  7735                           ;usb_device.c: 2761: unsigned char* pUEP;
  7736                           ;usb_device.c: 2799: if((SetupPkt.bFeature == 1)&&
  7737                           ;usb_device.c: 2800: (SetupPkt.Recipient == (0x00)))
  7738                           
  7739                           ;incstack = 0
  7740  000EA4  0104               	movlb	4	; () banked
  7741  000EA6  0542               	decf	66,w,b	;volatile
  7742  000EA8  A4D8               	btfss	status,2,c
  7743  000EAA  D010               	goto	i2l402
  7744                           
  7745                           ; BSR set to: 4
  7746  000EAC  5140               	movf	64,w,b	;volatile
  7747  000EAE  0B1F               	andlw	31
  7748  000EB0  0900               	iorlw	0
  7749  000EB2  A4D8               	btfss	status,2,c
  7750  000EB4  D00B               	goto	i2l402
  7751                           
  7752                           ; BSR set to: 4
  7753                           ;usb_device.c: 2801: {
  7754                           ;usb_device.c: 2802: inPipes[0].info.bits.busy = 1;
  7755  000EB6  0100               	movlb	0	; () banked
  7756  000EB8  8F85               	bsf	(_inPipes+3)& (0+255),7,b	;volatile
  7757                           
  7758                           ; BSR set to: 0
  7759                           ;usb_device.c: 2803: if(SetupPkt.bRequest == 3)
  7760  000EBA  0E03               	movlw	3
  7761  000EBC  0104               	movlb	4	; () banked
  7762  000EBE  1941               	xorwf	65,w,b	;volatile
  7763  000EC0  A4D8               	btfss	status,2,c
  7764  000EC2  D002               	goto	i2l401
  7765                           
  7766                           ; BSR set to: 4
  7767                           ;usb_device.c: 2804: RemoteWakeup = 1;
  7768  000EC4  0E01               	movlw	1
  7769  000EC6  D001               	goto	L6
  7770  000EC8                     i2l401:
  7771                           
  7772                           ; BSR set to: 4
  7773                           ;usb_device.c: 2805: else
  7774                           ;usb_device.c: 2806: RemoteWakeup = 0;
  7775                           
  7776                           ; BSR set to: 4
  7777  000EC8  0E00               	movlw	0
  7778  000ECA                     L6:
  7779  000ECA  6E4F               	movwf	_RemoteWakeup,c	;volatile
  7780  000ECC                     i2l402:
  7781                           
  7782                           ; BSR set to: 4
  7783                           ;usb_device.c: 2807: }
  7784                           ;usb_device.c: 2810: if((SetupPkt.bFeature == 0)&&
  7785                           ;usb_device.c: 2811: (SetupPkt.Recipient == (0x02))&&
  7786                           ;usb_device.c: 2812: (SetupPkt.EPNum != 0) && (SetupPkt.EPNum <= 3)&&
  7787                           ;usb_device.c: 2813: (USBDeviceState == CONFIGURED_STATE))
  7788                           
  7789                           ; BSR set to: 4
  7790  000ECC  5142               	movf	66,w,b	;volatile
  7791  000ECE  A4D8               	btfss	status,2,c
  7792  000ED0  0012               	return	
  7793                           
  7794                           ; BSR set to: 4
  7795  000ED2  5140               	movf	64,w,b	;volatile
  7796  000ED4  0B1F               	andlw	31
  7797  000ED6  0A02               	xorlw	2
  7798  000ED8  A4D8               	btfss	status,2,c
  7799  000EDA  0012               	return	
  7800                           
  7801                           ; BSR set to: 4
  7802  000EDC  5144               	movf	68,w,b	;volatile
  7803  000EDE  0B0F               	andlw	15
  7804  000EE0  0900               	iorlw	0
  7805  000EE2  B4D8               	btfsc	status,2,c
  7806  000EE4  0012               	return	
  7807                           
  7808                           ; BSR set to: 4
  7809  000EE6  5144               	movf	68,w,b	;volatile
  7810  000EE8  0B0F               	andlw	15
  7811  000EEA  6E15               	movwf	??_USBStdFeatureReqHandler& (0+255),c
  7812  000EEC  0E04               	movlw	4
  7813  000EEE  6015               	cpfslt	??_USBStdFeatureReqHandler,c
  7814  000EF0  0012               	return	
  7815                           
  7816                           ; BSR set to: 4
  7817  000EF2  0E20               	movlw	32
  7818  000EF4  1852               	xorwf	_USBDeviceState,w,c	;volatile
  7819  000EF6  A4D8               	btfss	status,2,c
  7820  000EF8  0012               	return	
  7821                           
  7822                           ; BSR set to: 4
  7823                           ;usb_device.c: 2814: {
  7824                           ;usb_device.c: 2817: inPipes[0].info.bits.busy = 1;
  7825  000EFA  0100               	movlb	0	; () banked
  7826  000EFC  8F85               	bsf	(_inPipes+3)& (0+255),7,b	;volatile
  7827                           
  7828                           ;usb_device.c: 2820: if(SetupPkt.EPDir == 0)
  7829  000EFE  0104               	movlb	4	; () banked
  7830  000F00  BF44               	btfsc	68,7,b	;volatile
  7831  000F02  D019               	goto	i2l404
  7832                           
  7833                           ; BSR set to: 4
  7834                           ;usb_device.c: 2821: {
  7835                           ;usb_device.c: 2822: p = (BDT_ENTRY*)pBDTEntryOut[SetupPkt.EPNum];
  7836  000F04  5144               	movf	68,w,b	;volatile
  7837  000F06  0B0F               	andlw	15
  7838  000F08  6E15               	movwf	??_USBStdFeatureReqHandler& (0+255),c
  7839  000F0A  5015               	movf	??_USBStdFeatureReqHandler,w,c
  7840  000F0C  0D02               	mullw	2
  7841  000F0E  0E7A               	movlw	low _pBDTEntryOut
  7842  000F10  24F3               	addwf	prodl,w,c
  7843  000F12  6ED9               	movwf	fsr2l,c
  7844  000F14  0E00               	movlw	high _pBDTEntryOut
  7845  000F16  20F4               	addwfc	prodh,w,c
  7846  000F18  6EDA               	movwf	fsr2h,c
  7847  000F1A  CFDE F019          	movff	postinc2,USBStdFeatureReqHandler@p
  7848  000F1E  CFDD F01A          	movff	postdec2,USBStdFeatureReqHandler@p+1
  7849                           
  7850                           ;usb_device.c: 2823: current_ep_data.Val = ep_data_out[SetupPkt.EPNum].Val;
  7851  000F22  5144               	movf	68,w,b	;volatile
  7852  000F24  0B0F               	andlw	15
  7853  000F26  6E15               	movwf	??_USBStdFeatureReqHandler& (0+255),c
  7854  000F28  5015               	movf	??_USBStdFeatureReqHandler,w,c
  7855  000F2A  0D01               	mullw	1
  7856  000F2C  0E8C               	movlw	low _ep_data_out
  7857  000F2E  24F3               	addwf	prodl,w,c
  7858  000F30  6ED9               	movwf	fsr2l,c
  7859  000F32  0E00               	movlw	high _ep_data_out
  7860  000F34  D018               	goto	L7
  7861  000F36                     i2l404:
  7862                           
  7863                           ; BSR set to: 4
  7864                           ;usb_device.c: 2825: else
  7865                           ;usb_device.c: 2826: {
  7866                           ;usb_device.c: 2827: p = (BDT_ENTRY*)pBDTEntryIn[SetupPkt.EPNum];
  7867                           
  7868                           ; BSR set to: 4
  7869  000F36  5144               	movf	68,w,b	;volatile
  7870  000F38  0B0F               	andlw	15
  7871  000F3A  6E15               	movwf	??_USBStdFeatureReqHandler& (0+255),c
  7872  000F3C  5015               	movf	??_USBStdFeatureReqHandler,w,c
  7873  000F3E  0D02               	mullw	2
  7874  000F40  0E72               	movlw	low _pBDTEntryIn
  7875  000F42  24F3               	addwf	prodl,w,c
  7876  000F44  6ED9               	movwf	fsr2l,c
  7877  000F46  0E00               	movlw	high _pBDTEntryIn
  7878  000F48  20F4               	addwfc	prodh,w,c
  7879  000F4A  6EDA               	movwf	fsr2h,c
  7880  000F4C  CFDE F019          	movff	postinc2,USBStdFeatureReqHandler@p
  7881  000F50  CFDD F01A          	movff	postdec2,USBStdFeatureReqHandler@p+1
  7882                           
  7883                           ;usb_device.c: 2828: current_ep_data.Val = ep_data_in[SetupPkt.EPNum].Val;
  7884  000F54  5144               	movf	68,w,b	;volatile
  7885  000F56  0B0F               	andlw	15
  7886  000F58  6E15               	movwf	??_USBStdFeatureReqHandler& (0+255),c
  7887  000F5A  5015               	movf	??_USBStdFeatureReqHandler,w,c
  7888  000F5C  0D01               	mullw	1
  7889  000F5E  0E90               	movlw	low _ep_data_in
  7890  000F60  24F3               	addwf	prodl,w,c
  7891  000F62  6ED9               	movwf	fsr2l,c
  7892  000F64  0E00               	movlw	high _ep_data_in
  7893  000F66                     L7:
  7894  000F66  20F4               	addwfc	prodh,w,c
  7895  000F68  6EDA               	movwf	fsr2h,c
  7896  000F6A  50DF               	movf	indf2,w,c
  7897  000F6C  6E18               	movwf	USBStdFeatureReqHandler@current_ep_data,c
  7898                           
  7899                           ; BSR set to: 4
  7900                           ;usb_device.c: 2829: }
  7901                           ;usb_device.c: 2835: if(current_ep_data.bits.ping_pong_state == 0)
  7902                           
  7903                           ; BSR set to: 4
  7904  000F6E  B018               	btfsc	USBStdFeatureReqHandler@current_ep_data,0,c
  7905  000F70  D006               	goto	i2l406
  7906                           
  7907                           ; BSR set to: 4
  7908                           ;usb_device.c: 2836: {
  7909                           ;usb_device.c: 2837: p = (BDT_ENTRY*)(((uintptr_t)p) & (~0x0004));
  7910  000F72  0EFB               	movlw	251
  7911  000F74  1419               	andwf	USBStdFeatureReqHandler@p,w,c
  7912  000F76  6E19               	movwf	USBStdFeatureReqHandler@p,c
  7913  000F78  0EFF               	movlw	255
  7914  000F7A  141A               	andwf	USBStdFeatureReqHandler@p+1,w,c
  7915  000F7C  D004               	goto	L8
  7916  000F7E                     i2l406:
  7917                           
  7918                           ; BSR set to: 4
  7919                           ;usb_device.c: 2839: else
  7920                           ;usb_device.c: 2840: {
  7921                           ;usb_device.c: 2841: p = (BDT_ENTRY*)(((uintptr_t)p) | 0x0004);
  7922                           
  7923                           ; BSR set to: 4
  7924  000F7E  0E04               	movlw	4
  7925  000F80  1019               	iorwf	USBStdFeatureReqHandler@p,w,c
  7926  000F82  6E19               	movwf	USBStdFeatureReqHandler@p,c
  7927  000F84  501A               	movf	USBStdFeatureReqHandler@p+1,w,c
  7928  000F86                     L8:
  7929  000F86  6E1A               	movwf	USBStdFeatureReqHandler@p+1,c
  7930                           
  7931                           ; BSR set to: 4
  7932                           ;usb_device.c: 2842: }
  7933                           ;usb_device.c: 2847: if(SetupPkt.EPDir == 0)
  7934                           
  7935                           ; BSR set to: 4
  7936  000F88  BF44               	btfsc	68,7,b	;volatile
  7937  000F8A  D00A               	goto	i2l408
  7938                           
  7939                           ; BSR set to: 4
  7940                           ;usb_device.c: 2848: {
  7941                           ;usb_device.c: 2849: pBDTEntryOut[SetupPkt.EPNum] = (volatile BDT_ENTRY *)p;
  7942  000F8C  5144               	movf	68,w,b	;volatile
  7943  000F8E  0B0F               	andlw	15
  7944  000F90  6E15               	movwf	??_USBStdFeatureReqHandler& (0+255),c
  7945  000F92  5015               	movf	??_USBStdFeatureReqHandler,w,c
  7946  000F94  0D02               	mullw	2
  7947  000F96  0E7A               	movlw	low _pBDTEntryOut
  7948  000F98  24F3               	addwf	prodl,w,c
  7949  000F9A  6ED9               	movwf	fsr2l,c
  7950  000F9C  0E00               	movlw	high _pBDTEntryOut
  7951  000F9E  D009               	goto	L9
  7952  000FA0                     i2l408:
  7953                           
  7954                           ; BSR set to: 4
  7955                           ;usb_device.c: 2851: else
  7956                           ;usb_device.c: 2852: {
  7957                           ;usb_device.c: 2853: pBDTEntryIn[SetupPkt.EPNum] = (volatile BDT_ENTRY *)p;
  7958                           
  7959                           ; BSR set to: 4
  7960  000FA0  5144               	movf	68,w,b	;volatile
  7961  000FA2  0B0F               	andlw	15
  7962  000FA4  6E15               	movwf	??_USBStdFeatureReqHandler& (0+255),c
  7963  000FA6  5015               	movf	??_USBStdFeatureReqHandler,w,c
  7964  000FA8  0D02               	mullw	2
  7965  000FAA  0E72               	movlw	low _pBDTEntryIn
  7966  000FAC  24F3               	addwf	prodl,w,c
  7967  000FAE  6ED9               	movwf	fsr2l,c
  7968  000FB0  0E00               	movlw	high _pBDTEntryIn
  7969  000FB2                     L9:
  7970  000FB2  20F4               	addwfc	prodh,w,c
  7971  000FB4  6EDA               	movwf	fsr2h,c
  7972  000FB6  C019  FFDE         	movff	USBStdFeatureReqHandler@p,postinc2
  7973  000FBA  C01A  FFDD         	movff	USBStdFeatureReqHandler@p+1,postdec2
  7974                           
  7975                           ; BSR set to: 4
  7976                           ;usb_device.c: 2854: }
  7977                           ;usb_device.c: 2857: if(SetupPkt.bRequest == 3)
  7978                           
  7979                           ; BSR set to: 4
  7980  000FBE  0E03               	movlw	3
  7981  000FC0  1941               	xorwf	65,w,b	;volatile
  7982  000FC2  A4D8               	btfss	status,2,c
  7983  000FC4  D02D               	goto	i2l410
  7984                           
  7985                           ; BSR set to: 4
  7986                           ;usb_device.c: 2858: {
  7987                           ;usb_device.c: 2859: if(p->STAT.UOWN == 1)
  7988  000FC6  C019  FFD9         	movff	USBStdFeatureReqHandler@p,fsr2l
  7989  000FCA  C01A  FFDA         	movff	USBStdFeatureReqHandler@p+1,fsr2h
  7990  000FCE  AEDF               	btfss	indf2,7,c
  7991  000FD0  D01A               	goto	i2l413
  7992                           
  7993                           ; BSR set to: 4
  7994                           ;usb_device.c: 2860: {
  7995                           ;usb_device.c: 2863: if(SetupPkt.EPDir == 0)
  7996  000FD2  BF44               	btfsc	68,7,b	;volatile
  7997  000FD4  D00A               	goto	i2l412
  7998                           
  7999                           ; BSR set to: 4
  8000                           ;usb_device.c: 2864: {
  8001                           ;usb_device.c: 2865: ep_data_out[SetupPkt.EPNum].bits.transfer_terminated = 1;
  8002  000FD6  5144               	movf	68,w,b	;volatile
  8003  000FD8  0B0F               	andlw	15
  8004  000FDA  6E15               	movwf	??_USBStdFeatureReqHandler& (0+255),c
  8005  000FDC  5015               	movf	??_USBStdFeatureReqHandler,w,c
  8006  000FDE  0D01               	mullw	1
  8007  000FE0  0E8C               	movlw	low _ep_data_out
  8008  000FE2  24F3               	addwf	prodl,w,c
  8009  000FE4  6ED9               	movwf	fsr2l,c
  8010  000FE6  0E00               	movlw	high _ep_data_out
  8011  000FE8  D00A               	goto	L10
  8012  000FEA                     i2l412:
  8013                           
  8014                           ;usb_device.c: 2867: else
  8015                           ;usb_device.c: 2868: {
  8016                           ;usb_device.c: 2869: ep_data_in[SetupPkt.EPNum].bits.transfer_terminated = 1;
  8017                           
  8018                           ; BSR set to: 0
  8019  000FEA  0104               	movlb	4	; () banked
  8020  000FEC  5144               	movf	68,w,b	;volatile
  8021  000FEE  0B0F               	andlw	15
  8022  000FF0  6E15               	movwf	??_USBStdFeatureReqHandler& (0+255),c
  8023  000FF2  5015               	movf	??_USBStdFeatureReqHandler,w,c
  8024  000FF4  0D01               	mullw	1
  8025  000FF6  0E90               	movlw	low _ep_data_in
  8026  000FF8  24F3               	addwf	prodl,w,c
  8027  000FFA  6ED9               	movwf	fsr2l,c
  8028  000FFC  0E00               	movlw	high _ep_data_in
  8029  000FFE                     L10:
  8030  000FFE  20F4               	addwfc	prodh,w,c
  8031  001000  6EDA               	movwf	fsr2h,c
  8032  001002  0100               	movlb	0	; () banked
  8033  001004  82DF               	bsf	indf2,1,c
  8034  001006                     i2l413:
  8035                           
  8036                           ;usb_device.c: 2870: }
  8037                           ;usb_device.c: 2871: }
  8038                           ;usb_device.c: 2874: p->STAT.Val |= 0x04;
  8039                           
  8040                           ; BSR set to: 0
  8041                           
  8042                           ; BSR set to: 0
  8043  001006  C019  FFD9         	movff	USBStdFeatureReqHandler@p,fsr2l
  8044  00100A  C01A  FFDA         	movff	USBStdFeatureReqHandler@p+1,fsr2h
  8045  00100E  0E00               	movlw	0
  8046  001010  84DB               	bsf	plusw2,2,c
  8047                           
  8048                           ;usb_device.c: 2875: p->STAT.Val |= 0x80;
  8049  001012  C019  FFD9         	movff	USBStdFeatureReqHandler@p,fsr2l
  8050  001016  C01A  FFDA         	movff	USBStdFeatureReqHandler@p+1,fsr2h
  8051  00101A  0E00               	movlw	0
  8052  00101C  8EDB               	bsf	plusw2,7,c
  8053                           
  8054                           ;usb_device.c: 2876: }
  8055  00101E  0012               	return	
  8056  001020                     i2l410:
  8057                           
  8058                           ;usb_device.c: 2877: else
  8059                           ;usb_device.c: 2878: {
  8060                           ;usb_device.c: 2882: p = (BDT_ENTRY*)(((uintptr_t)p) ^ 0x0004);
  8061  001020  0E04               	movlw	4
  8062  001022  1819               	xorwf	USBStdFeatureReqHandler@p,w,c
  8063  001024  6E19               	movwf	USBStdFeatureReqHandler@p,c
  8064  001026  501A               	movf	USBStdFeatureReqHandler@p+1,w,c
  8065  001028  6E1A               	movwf	USBStdFeatureReqHandler@p+1,c
  8066                           
  8067                           ;usb_device.c: 2884: if(p->STAT.UOWN == 1)
  8068  00102A  C019  FFD9         	movff	USBStdFeatureReqHandler@p,fsr2l
  8069  00102E  C01A  FFDA         	movff	USBStdFeatureReqHandler@p+1,fsr2h
  8070  001032  AEDF               	btfss	indf2,7,c
  8071  001034  D01B               	goto	i2l415
  8072                           
  8073                           ;usb_device.c: 2885: {
  8074                           ;usb_device.c: 2888: p->STAT.Val &= (~0x80);
  8075  001036  C019  FFD9         	movff	USBStdFeatureReqHandler@p,fsr2l
  8076  00103A  C01A  FFDA         	movff	USBStdFeatureReqHandler@p+1,fsr2h
  8077  00103E  0E7F               	movlw	127
  8078  001040  16DF               	andwf	indf2,f,c
  8079                           
  8080                           ;usb_device.c: 2889: p->STAT.Val |= 0x40;
  8081  001042  C019  FFD9         	movff	USBStdFeatureReqHandler@p,fsr2l
  8082  001046  C01A  FFDA         	movff	USBStdFeatureReqHandler@p+1,fsr2h
  8083  00104A  0E00               	movlw	0
  8084  00104C  8CDB               	bsf	plusw2,6,c
  8085                           
  8086                           ;usb_device.c: 2890: USER_USB_CALLBACK_EVENT_HANDLER(EVENT_TRANSFER_TERMINATED,p,sizeof(
      +                          p));
  8087  00104E  0E00               	movlw	0
  8088  001050  6E0E               	movwf	USER_USB_CALLBACK_EVENT_HANDLER@event+1,c
  8089  001052  0E05               	movlw	5
  8090  001054  6E0D               	movwf	USER_USB_CALLBACK_EVENT_HANDLER@event,c
  8091  001056  C019  F00F         	movff	USBStdFeatureReqHandler@p,USER_USB_CALLBACK_EVENT_HANDLER@pdata
  8092  00105A  C01A  F010         	movff	USBStdFeatureReqHandler@p+1,USER_USB_CALLBACK_EVENT_HANDLER@pdata+1
  8093  00105E  0E00               	movlw	0
  8094  001060  6E12               	movwf	USER_USB_CALLBACK_EVENT_HANDLER@size+1,c
  8095  001062  0E02               	movlw	2
  8096  001064  6E11               	movwf	USER_USB_CALLBACK_EVENT_HANDLER@size,c
  8097  001066  EC42  F012         	call	_USER_USB_CALLBACK_EVENT_HANDLER	;wreg free
  8098                           
  8099                           ;usb_device.c: 2891: }
  8100  00106A  D006               	goto	i2l416
  8101  00106C                     i2l415:
  8102                           
  8103                           ;usb_device.c: 2892: else
  8104                           ;usb_device.c: 2893: {
  8105                           ;usb_device.c: 2895: p->STAT.Val |= 0x40;
  8106  00106C  C019  FFD9         	movff	USBStdFeatureReqHandler@p,fsr2l
  8107  001070  C01A  FFDA         	movff	USBStdFeatureReqHandler@p+1,fsr2h
  8108  001074  0E00               	movlw	0
  8109  001076  8CDB               	bsf	plusw2,6,c
  8110  001078                     i2l416:
  8111                           
  8112                           ;usb_device.c: 2896: }
  8113                           ;usb_device.c: 2900: p = (BDT_ENTRY*)(((uintptr_t)p) ^ 0x0004);
  8114  001078  0E04               	movlw	4
  8115  00107A  1819               	xorwf	USBStdFeatureReqHandler@p,w,c
  8116  00107C  6E19               	movwf	USBStdFeatureReqHandler@p,c
  8117  00107E  501A               	movf	USBStdFeatureReqHandler@p+1,w,c
  8118  001080  6E1A               	movwf	USBStdFeatureReqHandler@p+1,c
  8119                           
  8120                           ;usb_device.c: 2906: if((current_ep_data.bits.transfer_terminated != 0) || (p->STAT.UOWN
      +                           == 1))
  8121  001082  B218               	btfsc	USBStdFeatureReqHandler@current_ep_data,1,c
  8122  001084  D006               	goto	i2u265_40
  8123  001086  C019  FFD9         	movff	USBStdFeatureReqHandler@p,fsr2l
  8124  00108A  C01A  FFDA         	movff	USBStdFeatureReqHandler@p+1,fsr2h
  8125  00108E  AEDF               	btfss	indf2,7,c
  8126  001090  D030               	goto	i2l417
  8127  001092                     i2u265_40:
  8128                           
  8129                           ;usb_device.c: 2907: {
  8130                           ;usb_device.c: 2908: if(SetupPkt.EPDir == 0)
  8131  001092  0104               	movlb	4	; () banked
  8132  001094  BF44               	btfsc	68,7,b	;volatile
  8133  001096  D00A               	goto	i2l420
  8134                           
  8135                           ; BSR set to: 4
  8136                           ;usb_device.c: 2909: {
  8137                           ;usb_device.c: 2910: ep_data_out[SetupPkt.EPNum].bits.transfer_terminated = 0;
  8138  001098  5144               	movf	68,w,b	;volatile
  8139  00109A  0B0F               	andlw	15
  8140  00109C  6E15               	movwf	??_USBStdFeatureReqHandler& (0+255),c
  8141  00109E  5015               	movf	??_USBStdFeatureReqHandler,w,c
  8142  0010A0  0D01               	mullw	1
  8143  0010A2  0E8C               	movlw	low _ep_data_out
  8144  0010A4  24F3               	addwf	prodl,w,c
  8145  0010A6  6ED9               	movwf	fsr2l,c
  8146  0010A8  0E00               	movlw	high _ep_data_out
  8147  0010AA  D00A               	goto	L11
  8148  0010AC                     i2l420:
  8149                           
  8150                           ;usb_device.c: 2912: else
  8151                           ;usb_device.c: 2913: {
  8152                           ;usb_device.c: 2914: ep_data_in[SetupPkt.EPNum].bits.transfer_terminated = 0;
  8153                           
  8154                           ; BSR set to: 0
  8155  0010AC  0104               	movlb	4	; () banked
  8156  0010AE  5144               	movf	68,w,b	;volatile
  8157  0010B0  0B0F               	andlw	15
  8158  0010B2  6E15               	movwf	??_USBStdFeatureReqHandler& (0+255),c
  8159  0010B4  5015               	movf	??_USBStdFeatureReqHandler,w,c
  8160  0010B6  0D01               	mullw	1
  8161  0010B8  0E90               	movlw	low _ep_data_in
  8162  0010BA  24F3               	addwf	prodl,w,c
  8163  0010BC  6ED9               	movwf	fsr2l,c
  8164  0010BE  0E00               	movlw	high _ep_data_in
  8165  0010C0                     L11:
  8166  0010C0  20F4               	addwfc	prodh,w,c
  8167  0010C2  6EDA               	movwf	fsr2h,c
  8168  0010C4  0100               	movlb	0	; () banked
  8169  0010C6  92DF               	bcf	indf2,1,c
  8170                           
  8171                           ; BSR set to: 0
  8172                           ;usb_device.c: 2915: }
  8173                           ;usb_device.c: 2917: p->STAT.Val &= ~(0x80 | 0x40 | 0x04);
  8174                           
  8175                           ; BSR set to: 0
  8176  0010C8  C019  FFD9         	movff	USBStdFeatureReqHandler@p,fsr2l
  8177  0010CC  C01A  FFDA         	movff	USBStdFeatureReqHandler@p+1,fsr2h
  8178  0010D0  0E3B               	movlw	59
  8179  0010D2  16DF               	andwf	indf2,f,c
  8180                           
  8181                           ; BSR set to: 0
  8182                           ;usb_device.c: 2920: USER_USB_CALLBACK_EVENT_HANDLER(EVENT_TRANSFER_TERMINATED,p,sizeof(
      +                          p));
  8183  0010D4  0E00               	movlw	0
  8184  0010D6  6E0E               	movwf	USER_USB_CALLBACK_EVENT_HANDLER@event+1,c
  8185  0010D8  0E05               	movlw	5
  8186  0010DA  6E0D               	movwf	USER_USB_CALLBACK_EVENT_HANDLER@event,c
  8187  0010DC  C019  F00F         	movff	USBStdFeatureReqHandler@p,USER_USB_CALLBACK_EVENT_HANDLER@pdata
  8188  0010E0  C01A  F010         	movff	USBStdFeatureReqHandler@p+1,USER_USB_CALLBACK_EVENT_HANDLER@pdata+1
  8189  0010E4  0E00               	movlw	0
  8190  0010E6  6E12               	movwf	USER_USB_CALLBACK_EVENT_HANDLER@size+1,c
  8191  0010E8  0E02               	movlw	2
  8192  0010EA  6E11               	movwf	USER_USB_CALLBACK_EVENT_HANDLER@size,c
  8193  0010EC  EC42  F012         	call	_USER_USB_CALLBACK_EVENT_HANDLER	;wreg free
  8194                           
  8195                           ;usb_device.c: 2921: }
  8196  0010F0  D006               	goto	i2l422
  8197  0010F2                     i2l417:
  8198                           
  8199                           ;usb_device.c: 2922: else
  8200                           ;usb_device.c: 2923: {
  8201                           ;usb_device.c: 2925: p->STAT.Val &= ~(0x80 | 0x40 | 0x04);
  8202  0010F2  C019  FFD9         	movff	USBStdFeatureReqHandler@p,fsr2l
  8203  0010F6  C01A  FFDA         	movff	USBStdFeatureReqHandler@p+1,fsr2h
  8204  0010FA  0E3B               	movlw	59
  8205  0010FC  16DF               	andwf	indf2,f,c
  8206  0010FE                     i2l422:
  8207                           
  8208                           ;usb_device.c: 2926: }
  8209                           ;usb_device.c: 2973: pUEP = (unsigned char*)(&UEP0+SetupPkt.EPNum);
  8210  0010FE  0104               	movlb	4	; () banked
  8211  001100  5144               	movf	68,w,b	;volatile
  8212  001102  0B0F               	andlw	15
  8213  001104  6E15               	movwf	??_USBStdFeatureReqHandler& (0+255),c
  8214  001106  5015               	movf	??_USBStdFeatureReqHandler,w,c
  8215  001108  0D01               	mullw	1
  8216  00110A  0E70               	movlw	112
  8217  00110C  24F3               	addwf	prodl,w,c
  8218  00110E  6E16               	movwf	USBStdFeatureReqHandler@pUEP,c
  8219  001110  0E0F               	movlw	15
  8220  001112  20F4               	addwfc	prodh,w,c
  8221  001114  6E17               	movwf	USBStdFeatureReqHandler@pUEP+1,c
  8222                           
  8223                           ; BSR set to: 4
  8224                           ;usb_device.c: 2977: *pUEP &= ~0x0001;
  8225  001116  C016  FFD9         	movff	USBStdFeatureReqHandler@pUEP,fsr2l
  8226  00111A  C017  FFDA         	movff	USBStdFeatureReqHandler@pUEP+1,fsr2h
  8227  00111E  0EFE               	movlw	254
  8228  001120  16DF               	andwf	indf2,f,c
  8229                           
  8230                           ; BSR set to: 4
  8231  001122  0012               	return	
  8232  001124                     __end_of_USBStdFeatureReqHandler:
  8233                           	opt stack 0
  8234                           pclatu	equ	0xFFB
  8235                           pclath	equ	0xFFA
  8236                           tblptru	equ	0xFF8
  8237                           tblptrh	equ	0xFF7
  8238                           tblptrl	equ	0xFF6
  8239                           tablat	equ	0xFF5
  8240                           prodh	equ	0xFF4
  8241                           prodl	equ	0xFF3
  8242                           intcon	equ	0xFF2
  8243                           postinc0	equ	0xFEE
  8244                           fsr0h	equ	0xFEA
  8245                           fsr0l	equ	0xFE9
  8246                           wreg	equ	0xFE8
  8247                           indf1	equ	0xFE7
  8248                           fsr1h	equ	0xFE2
  8249                           fsr1l	equ	0xFE1
  8250                           indf2	equ	0xFDF
  8251                           postinc2	equ	0xFDE
  8252                           postdec2	equ	0xFDD
  8253                           plusw2	equ	0xFDB
  8254                           fsr2h	equ	0xFDA
  8255                           fsr2l	equ	0xFD9
  8256                           status	equ	0xFD8
  8257                           
  8258 ;; *************** function _USER_USB_CALLBACK_EVENT_HANDLER *****************
  8259 ;; Defined at:
  8260 ;;		line 26 in file "usb/usb_events.c"
  8261 ;; Parameters:    Size  Location     Type
  8262 ;;  event           2   12[COMRAM] enum E40
  8263 ;;  pdata           2   14[COMRAM] PTR void 
  8264 ;;		 -> RAM(2047), USTATcopy(1), USBActiveConfiguration(1), NULL(0), 
  8265 ;;		 -> BDT(64), 
  8266 ;;  size            2   16[COMRAM] unsigned int 
  8267 ;; Auto vars:     Size  Location     Type
  8268 ;;		None
  8269 ;; Return value:  Size  Location     Type
  8270 ;;                  1    wreg      unsigned char 
  8271 ;; Registers used:
  8272 ;;		wreg, fsr2l, fsr2h, status,2, status,0, prodl, prodh, cstack
  8273 ;; Tracked objects:
  8274 ;;		On entry : 0/0
  8275 ;;		On exit  : 0/0
  8276 ;;		Unchanged: 0/0
  8277 ;; Data sizes:     COMRAM   BANK0   BANK1   BANK2   BANK3   BANK4   BANK5   BANK6   BANK7
  8278 ;;      Params:         6       0       0       0       0       0       0       0       0
  8279 ;;      Locals:         0       0       0       0       0       0       0       0       0
  8280 ;;      Temps:          2       0       0       0       0       0       0       0       0
  8281 ;;      Totals:         8       0       0       0       0       0       0       0       0
  8282 ;;Total ram usage:        8 bytes
  8283 ;; Hardware stack levels used:    1
  8284 ;; Hardware stack levels required when called:    3
  8285 ;; This function calls:
  8286 ;;		_CDCInitEP
  8287 ;;		_USBCheckCDCRequest
  8288 ;;		_initCDC
  8289 ;; This function is called by:
  8290 ;;		_USBDeviceTasks
  8291 ;;		_USBStdSetCfgHandler
  8292 ;;		_USBSuspend
  8293 ;;		_USBWakeFromSuspend
  8294 ;;		_USBCtrlTrfSetupHandler
  8295 ;;		_USBCheckStdRequest
  8296 ;;		_USBStdFeatureReqHandler
  8297 ;; This function uses a non-reentrant model
  8298 ;;
  8299                           
  8300                           	psect	text38
  8301  002484                     __ptext38:
  8302                           	opt stack 0
  8303  002484                     _USER_USB_CALLBACK_EVENT_HANDLER:
  8304                           	opt stack 21
  8305                           
  8306                           ;usb_events.c: 28: switch( (int) event )
  8307                           
  8308                           ;incstack = 0
  8309  002484  D008               	goto	i2l23
  8310  002486                     
  8311                           ;usb_events.c: 43: CDCInitEP();
  8312  002486  EC10  F012         	call	_CDCInitEP	;wreg free
  8313                           
  8314                           ;usb_events.c: 44: initCDC();
  8315  00248A  EC3B  F014         	call	_initCDC	;wreg free
  8316                           
  8317                           ;usb_events.c: 48: break;
  8318                           
  8319                           ;usb_events.c: 47: case EVENT_SET_DESCRIPTOR:
  8320                           
  8321                           ;usb_events.c: 45: break;
  8322  00248E  0012               	return	
  8323  002490                     
  8324                           ;usb_events.c: 53: USBCheckCDCRequest();
  8325  002490  EC96  F00F         	call	_USBCheckCDCRequest	;wreg free
  8326                           
  8327                           ;usb_events.c: 64: }
  8328                           
  8329                           ;usb_events.c: 63: break;
  8330                           
  8331                           ;usb_events.c: 62: default:
  8332                           
  8333                           ;usb_events.c: 60: break;
  8334                           
  8335                           ;usb_events.c: 59: case EVENT_TRANSFER_TERMINATED:
  8336                           
  8337                           ;usb_events.c: 57: break;
  8338                           
  8339                           ;usb_events.c: 56: case EVENT_BUS_ERROR:
  8340                           
  8341                           ;usb_events.c: 54: break;
  8342  002494  0012               	return	
  8343  002496                     i2l23:
  8344  002496  C00D  F013         	movff	USER_USB_CALLBACK_EVENT_HANDLER@event,??_USER_USB_CALLBACK_EVENT_HANDLER
  8345  00249A  C00E  F014         	movff	USER_USB_CALLBACK_EVENT_HANDLER@event+1,??_USER_USB_CALLBACK_EVENT_HANDLER+1
  8346                           
  8347                           ; Switch on 2 bytes has been partitioned into a top level switch of size 1, and 2 sub-sw
      +                          itches
  8348                           ; Switch size 1, requested type "space"
  8349                           ; Number of cases is 2, Range of values is 0 to 127
  8350                           ; switch strategies available:
  8351                           ; Name         Instructions Cycles
  8352                           ; simple_byte            7     4 (average)
  8353                           ;	Chosen strategy is simple_byte
  8354  00249E  5014               	movf	??_USER_USB_CALLBACK_EVENT_HANDLER+1,w,c
  8355  0024A0  0A00               	xorlw	0	; case 0
  8356  0024A2  B4D8               	btfsc	status,2,c
  8357  0024A4  D004               	goto	i2l5457
  8358  0024A6  0A7F               	xorlw	127	; case 127
  8359  0024A8  A4D8               	btfss	status,2,c
  8360  0024AA  0012               	return	
  8361  0024AC  D018               	goto	i2l5459
  8362  0024AE                     i2l5457:
  8363                           
  8364                           ; Switch size 1, requested type "space"
  8365                           ; Number of cases is 8, Range of values is 1 to 117
  8366                           ; switch strategies available:
  8367                           ; Name         Instructions Cycles
  8368                           ; simple_byte           25    13 (average)
  8369                           ;	Chosen strategy is simple_byte
  8370  0024AE  5013               	movf	??_USER_USB_CALLBACK_EVENT_HANDLER,w,c
  8371  0024B0  0A01               	xorlw	1	; case 1
  8372  0024B2  B4D8               	btfsc	status,2,c
  8373  0024B4  D7E8               	goto	i2l29
  8374  0024B6  0A03               	xorlw	3	; case 2
  8375  0024B8  B4D8               	btfsc	status,2,c
  8376  0024BA  0012               	return	
  8377  0024BC  0A01               	xorlw	1	; case 3
  8378  0024BE  B4D8               	btfsc	status,2,c
  8379  0024C0  D7E7               	goto	i2l31
  8380  0024C2  0A06               	xorlw	6	; case 5
  8381  0024C4  B4D8               	btfsc	status,2,c
  8382  0024C6  0012               	return	
  8383  0024C8  0A77               	xorlw	119	; case 114
  8384  0024CA  B4D8               	btfsc	status,2,c
  8385  0024CC  0012               	return	
  8386  0024CE  0A01               	xorlw	1	; case 115
  8387  0024D0  B4D8               	btfsc	status,2,c
  8388  0024D2  0012               	return	
  8389  0024D4  0A07               	xorlw	7	; case 116
  8390  0024D6  B4D8               	btfsc	status,2,c
  8391  0024D8  0012               	return	
  8392  0024DA  0A01               	xorlw	1	; case 117
  8393  0024DC  0012               	return	
  8394  0024DE                     i2l5459:
  8395                           
  8396                           ; Switch size 1, requested type "space"
  8397                           ; Number of cases is 1, Range of values is 255 to 255
  8398                           ; switch strategies available:
  8399                           ; Name         Instructions Cycles
  8400                           ; simple_byte            4     3 (average)
  8401                           ;	Chosen strategy is simple_byte
  8402  0024DE  5013               	movf	??_USER_USB_CALLBACK_EVENT_HANDLER,w,c
  8403  0024E0  0AFF               	xorlw	255	; case 255
  8404  0024E2  0012               	return	
  8405  0024E4                     __end_of_USER_USB_CALLBACK_EVENT_HANDLER:
  8406                           	opt stack 0
  8407                           pclatu	equ	0xFFB
  8408                           pclath	equ	0xFFA
  8409                           tblptru	equ	0xFF8
  8410                           tblptrh	equ	0xFF7
  8411                           tblptrl	equ	0xFF6
  8412                           tablat	equ	0xFF5
  8413                           prodh	equ	0xFF4
  8414                           prodl	equ	0xFF3
  8415                           intcon	equ	0xFF2
  8416                           postinc0	equ	0xFEE
  8417                           fsr0h	equ	0xFEA
  8418                           fsr0l	equ	0xFE9
  8419                           wreg	equ	0xFE8
  8420                           indf1	equ	0xFE7
  8421                           fsr1h	equ	0xFE2
  8422                           fsr1l	equ	0xFE1
  8423                           indf2	equ	0xFDF
  8424                           postinc2	equ	0xFDE
  8425                           postdec2	equ	0xFDD
  8426                           plusw2	equ	0xFDB
  8427                           fsr2h	equ	0xFDA
  8428                           fsr2l	equ	0xFD9
  8429                           status	equ	0xFD8
  8430                           
  8431 ;; *************** function _initCDC *****************
  8432 ;; Defined at:
  8433 ;;		line 76 in file "main.c"
  8434 ;; Parameters:    Size  Location     Type
  8435 ;;		None
  8436 ;; Auto vars:     Size  Location     Type
  8437 ;;		None
  8438 ;; Return value:  Size  Location     Type
  8439 ;;                  1    wreg      void 
  8440 ;; Registers used:
  8441 ;;		wreg, status,2
  8442 ;; Tracked objects:
  8443 ;;		On entry : 0/0
  8444 ;;		On exit  : 0/0
  8445 ;;		Unchanged: 0/0
  8446 ;; Data sizes:     COMRAM   BANK0   BANK1   BANK2   BANK3   BANK4   BANK5   BANK6   BANK7
  8447 ;;      Params:         0       0       0       0       0       0       0       0       0
  8448 ;;      Locals:         0       0       0       0       0       0       0       0       0
  8449 ;;      Temps:          0       0       0       0       0       0       0       0       0
  8450 ;;      Totals:         0       0       0       0       0       0       0       0       0
  8451 ;;Total ram usage:        0 bytes
  8452 ;; Hardware stack levels used:    1
  8453 ;; This function calls:
  8454 ;;		Nothing
  8455 ;; This function is called by:
  8456 ;;		_USER_USB_CALLBACK_EVENT_HANDLER
  8457 ;; This function uses a non-reentrant model
  8458 ;;
  8459                           
  8460                           	psect	text39
  8461  002876                     __ptext39:
  8462                           	opt stack 0
  8463  002876                     _initCDC:
  8464                           	opt stack 23
  8465                           
  8466                           ;main.c: 78: line_coding.bCharFormat = 0;
  8467                           
  8468                           ;incstack = 0
  8469  002876  0E00               	movlw	0
  8470  002878  6E57               	movwf	_line_coding+4,c
  8471                           
  8472                           ;main.c: 79: line_coding.bDataBits = 8;
  8473  00287A  0E08               	movlw	8
  8474  00287C  6E59               	movwf	_line_coding+6,c
  8475                           
  8476                           ;main.c: 80: line_coding.bParityType = 0;
  8477  00287E  0E00               	movlw	0
  8478  002880  6E58               	movwf	_line_coding+5,c
  8479                           
  8480                           ;main.c: 81: line_coding.dwDTERate = 9600;
  8481  002882  0E80               	movlw	128
  8482  002884  6E53               	movwf	_line_coding,c
  8483  002886  0E25               	movlw	37
  8484  002888  6E54               	movwf	_line_coding+1,c
  8485  00288A  0E00               	movlw	0
  8486  00288C  6E55               	movwf	_line_coding+2,c
  8487  00288E  0E00               	movlw	0
  8488  002890  6E56               	movwf	_line_coding+3,c
  8489  002892  0012               	return		;funcret
  8490  002894                     __end_of_initCDC:
  8491                           	opt stack 0
  8492                           pclatu	equ	0xFFB
  8493                           pclath	equ	0xFFA
  8494                           tblptru	equ	0xFF8
  8495                           tblptrh	equ	0xFF7
  8496                           tblptrl	equ	0xFF6
  8497                           tablat	equ	0xFF5
  8498                           prodh	equ	0xFF4
  8499                           prodl	equ	0xFF3
  8500                           intcon	equ	0xFF2
  8501                           postinc0	equ	0xFEE
  8502                           fsr0h	equ	0xFEA
  8503                           fsr0l	equ	0xFE9
  8504                           wreg	equ	0xFE8
  8505                           indf1	equ	0xFE7
  8506                           fsr1h	equ	0xFE2
  8507                           fsr1l	equ	0xFE1
  8508                           indf2	equ	0xFDF
  8509                           postinc2	equ	0xFDE
  8510                           postdec2	equ	0xFDD
  8511                           plusw2	equ	0xFDB
  8512                           fsr2h	equ	0xFDA
  8513                           fsr2l	equ	0xFD9
  8514                           status	equ	0xFD8
  8515                           
  8516 ;; *************** function _USBCheckCDCRequest *****************
  8517 ;; Defined at:
  8518 ;;		line 151 in file "usb/src/usb_device_cdc.c"
  8519 ;; Parameters:    Size  Location     Type
  8520 ;;		None
  8521 ;; Auto vars:     Size  Location     Type
  8522 ;;		None
  8523 ;; Return value:  Size  Location     Type
  8524 ;;                  1    wreg      void 
  8525 ;; Registers used:
  8526 ;;		wreg, status,2, status,0
  8527 ;; Tracked objects:
  8528 ;;		On entry : 0/0
  8529 ;;		On exit  : 0/0
  8530 ;;		Unchanged: 0/0
  8531 ;; Data sizes:     COMRAM   BANK0   BANK1   BANK2   BANK3   BANK4   BANK5   BANK6   BANK7
  8532 ;;      Params:         0       0       0       0       0       0       0       0       0
  8533 ;;      Locals:         0       0       0       0       0       0       0       0       0
  8534 ;;      Temps:          0       0       0       0       0       0       0       0       0
  8535 ;;      Totals:         0       0       0       0       0       0       0       0       0
  8536 ;;Total ram usage:        0 bytes
  8537 ;; Hardware stack levels used:    1
  8538 ;; This function calls:
  8539 ;;		Nothing
  8540 ;; This function is called by:
  8541 ;;		_USER_USB_CALLBACK_EVENT_HANDLER
  8542 ;; This function uses a non-reentrant model
  8543 ;;
  8544                           
  8545                           	psect	text40
  8546  001F2C                     __ptext40:
  8547                           	opt stack 0
  8548  001F2C                     _USBCheckCDCRequest:
  8549                           	opt stack 23
  8550                           
  8551                           ;usb_device_cdc.c: 156: if(SetupPkt.Recipient != (0x01)) return;
  8552                           
  8553                           ;incstack = 0
  8554  001F2C  0104               	movlb	4	; () banked
  8555  001F2E  5140               	movf	64,w,b	;volatile
  8556  001F30  0B1F               	andlw	31
  8557  001F32  06E8               	decf	wreg,f,c
  8558  001F34  A4D8               	btfss	status,2,c
  8559  001F36  0012               	return	
  8560                           
  8561                           ; BSR set to: 4
  8562                           ;usb_device_cdc.c: 161: if(SetupPkt.RequestType != (0x20>>5)) return;
  8563                           
  8564                           ; BSR set to: 4
  8565                           
  8566                           ; BSR set to: 4
  8567  001F38  3940               	swapf	64,w,b	;volatile
  8568  001F3A  32E8               	rrcf	wreg,f,c
  8569  001F3C  0B03               	andlw	3
  8570  001F3E  06E8               	decf	wreg,f,c
  8571  001F40  A4D8               	btfss	status,2,c
  8572  001F42  0012               	return	
  8573                           
  8574                           ; BSR set to: 4
  8575                           ;usb_device_cdc.c: 167: if((SetupPkt.bIntfID != 0x00)&&
  8576                           ;usb_device_cdc.c: 168: (SetupPkt.bIntfID != 0x01)) return;
  8577                           
  8578                           ; BSR set to: 4
  8579                           
  8580                           ; BSR set to: 4
  8581  001F44  5144               	movf	68,w,b	;volatile
  8582  001F46  B4D8               	btfsc	status,2,c
  8583  001F48  D037               	goto	i2l482
  8584                           
  8585                           ; BSR set to: 4
  8586  001F4A  0544               	decf	68,w,b	;volatile
  8587  001F4C  A4D8               	btfss	status,2,c
  8588  001F4E  0012               	return	
  8589  001F50  D033               	goto	i2l482
  8590  001F52                     
  8591                           ; BSR set to: 4
  8592                           ;usb_device_cdc.c: 175: inPipes[0].pSrc.bRam = (uint8_t*)&dummy_encapsulated_cmd_respons
      +                          e;
  8593                           
  8594                           ; BSR set to: 4
  8595  001F52  0EA6               	movlw	low _dummy_encapsulated_cmd_response
  8596  001F54  0100               	movlb	0	; () banked
  8597  001F56  6F82               	movwf	_inPipes& (0+255),b	;volatile
  8598  001F58  0E00               	movlw	high _dummy_encapsulated_cmd_response
  8599  001F5A  6F83               	movwf	(_inPipes+1)& (0+255),b	;volatile
  8600                           
  8601                           ; BSR set to: 0
  8602                           ;usb_device_cdc.c: 176: inPipes[0].wCount.Val = 0x08;
  8603  001F5C  0E00               	movlw	0
  8604  001F5E  6F87               	movwf	(_inPipes+5)& (0+255),b	;volatile
  8605  001F60  0E08               	movlw	8
  8606  001F62  6F86               	movwf	(_inPipes+4)& (0+255),b	;volatile
  8607                           
  8608                           ; BSR set to: 0
  8609                           ;usb_device_cdc.c: 177: inPipes[0].info.bits.ctrl_trf_mem = 0x01;
  8610  001F64  8185               	bsf	(_inPipes+3)& (0+255),0,b	;volatile
  8611                           
  8612                           ; BSR set to: 0
  8613                           ;usb_device_cdc.c: 178: inPipes[0].info.bits.busy = 1;
  8614  001F66  8F85               	bsf	(_inPipes+3)& (0+255),7,b	;volatile
  8615                           
  8616                           ;usb_device_cdc.c: 179: break;
  8617  001F68  0012               	return	
  8618  001F6A                     
  8619                           ;usb_device_cdc.c: 182: inPipes[0].pSrc.bRam = (uint8_t*)&dummy_encapsulated_cmd_respons
      +                          e;
  8620                           
  8621                           ; BSR set to: 0
  8622  001F6A  0EA6               	movlw	low _dummy_encapsulated_cmd_response
  8623  001F6C  0100               	movlb	0	; () banked
  8624  001F6E  6F82               	movwf	_inPipes& (0+255),b	;volatile
  8625  001F70  0E00               	movlw	high _dummy_encapsulated_cmd_response
  8626  001F72  6F83               	movwf	(_inPipes+1)& (0+255),b	;volatile
  8627                           
  8628                           ; BSR set to: 0
  8629                           ;usb_device_cdc.c: 183: inPipes[0].info.bits.busy = 1;
  8630  001F74  8F85               	bsf	(_inPipes+3)& (0+255),7,b	;volatile
  8631                           
  8632                           ;usb_device_cdc.c: 184: break;
  8633  001F76  0012               	return	
  8634  001F78                     i2l486:
  8635                           
  8636                           ; BSR set to: 4
  8637                           ;usb_device_cdc.c: 189: outPipes[0].wCount.Val = SetupPkt.wLength;
  8638  001F78  C446 F06E          	movff	1094,_outPipes+4	;volatile
  8639  001F7C  C447 F06F          	movff	1095,_outPipes+5	;volatile
  8640                           
  8641                           ; BSR set to: 4
  8642                           ;usb_device_cdc.c: 190: outPipes[0].pDst.bRam = (uint8_t*)&line_coding._byte[0];
  8643  001F80  0E53               	movlw	low _line_coding
  8644  001F82  0100               	movlb	0	; () banked
  8645  001F84  6F6A               	movwf	_outPipes& (0+255),b	;volatile
  8646  001F86  0E00               	movlw	high _line_coding
  8647  001F88  6F6B               	movwf	(_outPipes+1)& (0+255),b	;volatile
  8648                           
  8649                           ;usb_device_cdc.c: 191: outPipes[0].pFunc = (0);
  8650  001F8A  0E00               	movlw	0
  8651  001F8C  6F70               	movwf	(_outPipes+6)& (0+255),b	;volatile
  8652  001F8E  0E00               	movlw	0
  8653  001F90  6F71               	movwf	(_outPipes+7)& (0+255),b	;volatile
  8654                           
  8655                           ; BSR set to: 0
  8656                           ;usb_device_cdc.c: 192: outPipes[0].info.bits.busy = 1;
  8657  001F92  8F6D               	bsf	(_outPipes+3)& (0+255),7,b	;volatile
  8658                           
  8659                           ;usb_device_cdc.c: 193: break;
  8660  001F94  0012               	return	
  8661  001F96                     
  8662                           ;usb_device_cdc.c: 196: { inPipes[0].pSrc.bRam = (uint8_t*)&line_coding; inPipes[0].wCou
      +                          nt.Val = 0x07; inPipes[0].info.Val = 0x40 | 0x80 | 0x01; };
  8663                           
  8664                           ; BSR set to: 0
  8665  001F96  0E53               	movlw	low _line_coding
  8666  001F98  0100               	movlb	0	; () banked
  8667  001F9A  6F82               	movwf	_inPipes& (0+255),b	;volatile
  8668  001F9C  0E00               	movlw	high _line_coding
  8669  001F9E  6F83               	movwf	(_inPipes+1)& (0+255),b	;volatile
  8670                           
  8671                           ; BSR set to: 0
  8672  001FA0  0E00               	movlw	0
  8673  001FA2  6F87               	movwf	(_inPipes+5)& (0+255),b	;volatile
  8674  001FA4  0E07               	movlw	7
  8675  001FA6  6F86               	movwf	(_inPipes+4)& (0+255),b	;volatile
  8676                           
  8677                           ; BSR set to: 0
  8678  001FA8  0EC1               	movlw	193
  8679  001FAA  6F85               	movwf	(_inPipes+3)& (0+255),b	;volatile
  8680                           
  8681                           ;usb_device_cdc.c: 200: break;
  8682  001FAC  0012               	return	
  8683  001FAE                     i2l488:
  8684                           
  8685                           ; BSR set to: 4
  8686                           ;usb_device_cdc.c: 203: control_signal_bitmap._byte = (uint8_t)SetupPkt.wValue;
  8687  001FAE  C442 F044          	movff	1090,_control_signal_bitmap	;volatile
  8688                           
  8689                           ;usb_device_cdc.c: 235: inPipes[0].info.bits.busy = 1;
  8690  001FB2  0100               	movlb	0	; () banked
  8691  001FB4  8F85               	bsf	(_inPipes+3)& (0+255),7,b	;volatile
  8692                           
  8693                           ; BSR set to: 0
  8694                           ;usb_device_cdc.c: 262: }
  8695                           
  8696                           ; BSR set to: 0
  8697                           ;usb_device_cdc.c: 261: break;
  8698                           
  8699                           ;usb_device_cdc.c: 260: default:
  8700                           
  8701                           ;usb_device_cdc.c: 236: break;
  8702  001FB6  0012               	return	
  8703  001FB8                     i2l482:
  8704                           
  8705                           ; BSR set to: 0
  8706  001FB8  0104               	movlb	4	; () banked
  8707  001FBA  5141               	movf	65,w,b	;volatile
  8708                           
  8709                           ; Switch size 1, requested type "space"
  8710                           ; Number of cases is 5, Range of values is 0 to 34
  8711                           ; switch strategies available:
  8712                           ; Name         Instructions Cycles
  8713                           ; simple_byte           16     9 (average)
  8714                           ;	Chosen strategy is simple_byte
  8715  001FBC  0A00               	xorlw	0	; case 0
  8716  001FBE  B4D8               	btfsc	status,2,c
  8717  001FC0  D7C8               	goto	i2l483
  8718  001FC2  0A01               	xorlw	1	; case 1
  8719  001FC4  B4D8               	btfsc	status,2,c
  8720  001FC6  D7D1               	goto	i2l485
  8721  001FC8  0A21               	xorlw	33	; case 32
  8722  001FCA  B4D8               	btfsc	status,2,c
  8723  001FCC  D7D5               	goto	i2l486
  8724  001FCE  0A01               	xorlw	1	; case 33
  8725  001FD0  B4D8               	btfsc	status,2,c
  8726  001FD2  D7E1               	goto	i2l487
  8727  001FD4  0A03               	xorlw	3	; case 34
  8728  001FD6  A4D8               	btfss	status,2,c
  8729  001FD8  0012               	return	
  8730  001FDA  D7E9               	goto	i2l488
  8731  001FDC                     __end_of_USBCheckCDCRequest:
  8732                           	opt stack 0
  8733                           pclatu	equ	0xFFB
  8734                           pclath	equ	0xFFA
  8735                           tblptru	equ	0xFF8
  8736                           tblptrh	equ	0xFF7
  8737                           tblptrl	equ	0xFF6
  8738                           tablat	equ	0xFF5
  8739                           prodh	equ	0xFF4
  8740                           prodl	equ	0xFF3
  8741                           intcon	equ	0xFF2
  8742                           postinc0	equ	0xFEE
  8743                           fsr0h	equ	0xFEA
  8744                           fsr0l	equ	0xFE9
  8745                           wreg	equ	0xFE8
  8746                           indf1	equ	0xFE7
  8747                           fsr1h	equ	0xFE2
  8748                           fsr1l	equ	0xFE1
  8749                           indf2	equ	0xFDF
  8750                           postinc2	equ	0xFDE
  8751                           postdec2	equ	0xFDD
  8752                           plusw2	equ	0xFDB
  8753                           fsr2h	equ	0xFDA
  8754                           fsr2l	equ	0xFD9
  8755                           status	equ	0xFD8
  8756                           
  8757 ;; *************** function _CDCInitEP *****************
  8758 ;; Defined at:
  8759 ;;		line 298 in file "usb/src/usb_device_cdc.c"
  8760 ;; Parameters:    Size  Location     Type
  8761 ;;		None
  8762 ;; Auto vars:     Size  Location     Type
  8763 ;;		None
  8764 ;; Return value:  Size  Location     Type
  8765 ;;                  1    wreg      void 
  8766 ;; Registers used:
  8767 ;;		wreg, fsr2l, fsr2h, status,2, status,0, prodl, prodh, cstack
  8768 ;; Tracked objects:
  8769 ;;		On entry : 0/0
  8770 ;;		On exit  : 0/0
  8771 ;;		Unchanged: 0/0
  8772 ;; Data sizes:     COMRAM   BANK0   BANK1   BANK2   BANK3   BANK4   BANK5   BANK6   BANK7
  8773 ;;      Params:         0       0       0       0       0       0       0       0       0
  8774 ;;      Locals:         0       0       0       0       0       0       0       0       0
  8775 ;;      Temps:          0       0       0       0       0       0       0       0       0
  8776 ;;      Totals:         0       0       0       0       0       0       0       0       0
  8777 ;;Total ram usage:        0 bytes
  8778 ;; Hardware stack levels used:    1
  8779 ;; Hardware stack levels required when called:    2
  8780 ;; This function calls:
  8781 ;;		_USBEnableEndpoint
  8782 ;;		i2_USBTransferOnePacket
  8783 ;; This function is called by:
  8784 ;;		_USER_USB_CALLBACK_EVENT_HANDLER
  8785 ;; This function uses a non-reentrant model
  8786 ;;
  8787                           
  8788                           	psect	text41
  8789  002420                     __ptext41:
  8790                           	opt stack 0
  8791  002420                     _CDCInitEP:
  8792                           	opt stack 21
  8793                           
  8794                           ;usb_device_cdc.c: 301: line_coding.dwDTERate = 19200;
  8795                           
  8796                           ;incstack = 0
  8797  002420  0E00               	movlw	0
  8798  002422  6E53               	movwf	_line_coding,c
  8799  002424  0E4B               	movlw	75
  8800  002426  6E54               	movwf	_line_coding+1,c
  8801  002428  0E00               	movlw	0
  8802  00242A  6E55               	movwf	_line_coding+2,c
  8803  00242C  0E00               	movlw	0
  8804  00242E  6E56               	movwf	_line_coding+3,c
  8805                           
  8806                           ;usb_device_cdc.c: 302: line_coding.bCharFormat = 0x00;
  8807  002430  0E00               	movlw	0
  8808  002432  6E57               	movwf	_line_coding+4,c
  8809                           
  8810                           ;usb_device_cdc.c: 303: line_coding.bParityType = 0x00;
  8811  002434  0E00               	movlw	0
  8812  002436  6E58               	movwf	_line_coding+5,c
  8813                           
  8814                           ;usb_device_cdc.c: 304: line_coding.bDataBits = 0x08;
  8815  002438  0E08               	movlw	8
  8816  00243A  6E59               	movwf	_line_coding+6,c
  8817                           
  8818                           ;usb_device_cdc.c: 306: cdc_rx_len = 0;
  8819  00243C  0E00               	movlw	0
  8820  00243E  0100               	movlb	0	; () banked
  8821  002440  6FA3               	movwf	_cdc_rx_len& (0+255),b
  8822                           
  8823                           ; BSR set to: 0
  8824                           ;usb_device_cdc.c: 319: USBEnableEndpoint(0x01,0x02|0x10|0x08);
  8825  002442  0E1A               	movlw	26
  8826  002444  6E09               	movwf	USBEnableEndpoint@options,c
  8827  002446  0E01               	movlw	1
  8828  002448  EC46  F013         	call	_USBEnableEndpoint
  8829                           
  8830                           ;usb_device_cdc.c: 320: USBEnableEndpoint(0x02,0x02|0x04|0x10|0x08);
  8831  00244C  0E1E               	movlw	30
  8832  00244E  6E09               	movwf	USBEnableEndpoint@options,c
  8833  002450  0E02               	movlw	2
  8834  002452  EC46  F013         	call	_USBEnableEndpoint
  8835                           
  8836                           ;usb_device_cdc.c: 322: CDCDataOutHandle = USBTransferOnePacket(0x02,0,(uint8_t*)&cdc_da
      +                          ta_rx,sizeof(cdc_data_rx));
  8837  002456  0E00               	movlw	0
  8838  002458  6E01               	movwf	i2USBTransferOnePacket@dir,c
  8839  00245A  0E40               	movlw	64
  8840  00245C  6E02               	movwf	i2USBTransferOnePacket@data,c
  8841  00245E  0E05               	movlw	5
  8842  002460  6E03               	movwf	i2USBTransferOnePacket@data+1,c
  8843  002462  0E40               	movlw	64
  8844  002464  6E04               	movwf	i2USBTransferOnePacket@len,c
  8845  002466  0E02               	movlw	2
  8846  002468  EC92  F00C         	call	i2_USBTransferOnePacket
  8847  00246C  C001  F09C         	movff	?i2_USBTransferOnePacket,_CDCDataOutHandle
  8848  002470  C002  F09D         	movff	?i2_USBTransferOnePacket+1,_CDCDataOutHandle+1
  8849                           
  8850                           ;usb_device_cdc.c: 323: CDCDataInHandle = (0);
  8851  002474  0E00               	movlw	0
  8852  002476  6E3B               	movwf	_CDCDataInHandle,c
  8853  002478  0E00               	movlw	0
  8854  00247A  6E3C               	movwf	_CDCDataInHandle+1,c
  8855                           
  8856                           ;usb_device_cdc.c: 350: cdc_trf_state = 0;
  8857  00247C  0E00               	movlw	0
  8858  00247E  0100               	movlb	0	; () banked
  8859  002480  6FA2               	movwf	_cdc_trf_state& (0+255),b
  8860                           
  8861                           ; BSR set to: 0
  8862  002482  0012               	return		;funcret
  8863  002484                     __end_of_CDCInitEP:
  8864                           	opt stack 0
  8865                           pclatu	equ	0xFFB
  8866                           pclath	equ	0xFFA
  8867                           tblptru	equ	0xFF8
  8868                           tblptrh	equ	0xFF7
  8869                           tblptrl	equ	0xFF6
  8870                           tablat	equ	0xFF5
  8871                           prodh	equ	0xFF4
  8872                           prodl	equ	0xFF3
  8873                           intcon	equ	0xFF2
  8874                           postinc0	equ	0xFEE
  8875                           fsr0h	equ	0xFEA
  8876                           fsr0l	equ	0xFE9
  8877                           wreg	equ	0xFE8
  8878                           indf1	equ	0xFE7
  8879                           fsr1h	equ	0xFE2
  8880                           fsr1l	equ	0xFE1
  8881                           indf2	equ	0xFDF
  8882                           postinc2	equ	0xFDE
  8883                           postdec2	equ	0xFDD
  8884                           plusw2	equ	0xFDB
  8885                           fsr2h	equ	0xFDA
  8886                           fsr2l	equ	0xFD9
  8887                           status	equ	0xFD8
  8888                           
  8889 ;; *************** function i2_USBTransferOnePacket *****************
  8890 ;; Defined at:
  8891 ;;		line 995 in file "usb/src/usb_device.c"
  8892 ;; Parameters:    Size  Location     Type
  8893 ;;  ep              1    wreg     unsigned char 
  8894 ;;  dir             1    0[COMRAM] unsigned char 
  8895 ;;  data            2    1[COMRAM] PTR unsigned char 
  8896 ;;		 -> cdc_data_tx(64), cdc_data_rx(64), NULL(0), 
  8897 ;;  len             1    3[COMRAM] unsigned char 
  8898 ;; Auto vars:     Size  Location     Type
  8899 ;;  ep              1    8[COMRAM] unsigned char 
  8900 ;;  USBTransferO    2    9[COMRAM] PTR volatile struct __BD
  8901 ;;		 -> RAM(2047), NULL(0), BDT(64), 
  8902 ;; Return value:  Size  Location     Type
  8903 ;;                  2    0[COMRAM] PTR void 
  8904 ;; Registers used:
  8905 ;;		wreg, fsr2l, fsr2h, status,2, status,0, prodl, prodh
  8906 ;; Tracked objects:
  8907 ;;		On entry : 0/0
  8908 ;;		On exit  : 0/0
  8909 ;;		Unchanged: 0/0
  8910 ;; Data sizes:     COMRAM   BANK0   BANK1   BANK2   BANK3   BANK4   BANK5   BANK6   BANK7
  8911 ;;      Params:         4       0       0       0       0       0       0       0       0
  8912 ;;      Locals:         3       0       0       0       0       0       0       0       0
  8913 ;;      Temps:          4       0       0       0       0       0       0       0       0
  8914 ;;      Totals:        11       0       0       0       0       0       0       0       0
  8915 ;;Total ram usage:       11 bytes
  8916 ;; Hardware stack levels used:    1
  8917 ;; This function calls:
  8918 ;;		Nothing
  8919 ;; This function is called by:
  8920 ;;		_CDCInitEP
  8921 ;; This function uses a non-reentrant model
  8922 ;;
  8923                           
  8924                           	psect	text42
  8925  001924                     __ptext42:
  8926                           	opt stack 0
  8927  001924                     i2_USBTransferOnePacket:
  8928                           	opt stack 22
  8929                           
  8930                           ; BSR set to: 0
  8931                           ;incstack = 0
  8932                           ;i2USBTransferOnePacket@ep stored from wreg
  8933  001924  6E09               	movwf	i2USBTransferOnePacket@ep,c
  8934                           
  8935                           ;usb_device.c: 997: volatile BDT_ENTRY* handle;
  8936                           ;usb_device.c: 1000: if(dir != 0)
  8937  001926  5001               	movf	i2USBTransferOnePacket@dir,w,c
  8938  001928  B4D8               	btfsc	status,2,c
  8939  00192A  D007               	goto	i2l213
  8940                           
  8941                           ;usb_device.c: 1001: {
  8942                           ;usb_device.c: 1003: handle = pBDTEntryIn[ep];
  8943  00192C  5009               	movf	i2USBTransferOnePacket@ep,w,c
  8944  00192E  0D02               	mullw	2
  8945  001930  0E72               	movlw	low _pBDTEntryIn
  8946  001932  24F3               	addwf	prodl,w,c
  8947  001934  6ED9               	movwf	fsr2l,c
  8948  001936  0E00               	movlw	high _pBDTEntryIn
  8949  001938  D006               	goto	L12
  8950  00193A                     i2l213:
  8951                           
  8952                           ;usb_device.c: 1005: else
  8953                           ;usb_device.c: 1006: {
  8954                           ;usb_device.c: 1008: handle = pBDTEntryOut[ep];
  8955  00193A  5009               	movf	i2USBTransferOnePacket@ep,w,c
  8956  00193C  0D02               	mullw	2
  8957  00193E  0E7A               	movlw	low _pBDTEntryOut
  8958  001940  24F3               	addwf	prodl,w,c
  8959  001942  6ED9               	movwf	fsr2l,c
  8960  001944  0E00               	movlw	high _pBDTEntryOut
  8961  001946                     L12:
  8962  001946  20F4               	addwfc	prodh,w,c
  8963  001948  6EDA               	movwf	fsr2h,c
  8964  00194A  CFDE F00A          	movff	postinc2,i2USBTransferOnePacket@handle
  8965  00194E  CFDD F00B          	movff	postdec2,i2USBTransferOnePacket@handle+1
  8966                           
  8967                           ;usb_device.c: 1009: }
  8968                           ;usb_device.c: 1013: if(handle == 0)
  8969  001952  500A               	movf	i2USBTransferOnePacket@handle,w,c
  8970  001954  100B               	iorwf	i2USBTransferOnePacket@handle+1,w,c
  8971  001956  A4D8               	btfss	status,2,c
  8972  001958  D005               	goto	i2l215
  8973                           
  8974                           ;usb_device.c: 1014: {
  8975                           ;usb_device.c: 1015: return 0;
  8976  00195A  0E00               	movlw	0
  8977  00195C  6E01               	movwf	?i2_USBTransferOnePacket,c
  8978  00195E  0E00               	movlw	0
  8979  001960  6E02               	movwf	?i2_USBTransferOnePacket+1,c
  8980  001962  0012               	return	
  8981  001964                     i2l215:
  8982                           
  8983                           ;usb_device.c: 1016: }
  8984                           ;usb_device.c: 1029: handle->ADR = ((uint16_t)(data));
  8985  001964  EE20 F002          	lfsr	2,2
  8986  001968  500A               	movf	i2USBTransferOnePacket@handle,w,c
  8987  00196A  26D9               	addwf	fsr2l,f,c
  8988  00196C  500B               	movf	i2USBTransferOnePacket@handle+1,w,c
  8989  00196E  22DA               	addwfc	fsr2h,f,c
  8990  001970  C002  FFDE         	movff	i2USBTransferOnePacket@data,postinc2
  8991  001974  C003  FFDD         	movff	i2USBTransferOnePacket@data+1,postdec2
  8992                           
  8993                           ;usb_device.c: 1030: handle->CNT = len;
  8994  001978  EE20 F001          	lfsr	2,1
  8995  00197C  500A               	movf	i2USBTransferOnePacket@handle,w,c
  8996  00197E  26D9               	addwf	fsr2l,f,c
  8997  001980  500B               	movf	i2USBTransferOnePacket@handle+1,w,c
  8998  001982  22DA               	addwfc	fsr2h,f,c
  8999  001984  C004  FFDF         	movff	i2USBTransferOnePacket@len,indf2
  9000                           
  9001                           ;usb_device.c: 1031: handle->STAT.Val &= 0x40;
  9002  001988  C00A  FFD9         	movff	i2USBTransferOnePacket@handle,fsr2l
  9003  00198C  C00B  FFDA         	movff	i2USBTransferOnePacket@handle+1,fsr2h
  9004  001990  0E40               	movlw	64
  9005  001992  16DF               	andwf	indf2,f,c
  9006                           
  9007                           ;usb_device.c: 1032: handle->STAT.Val |= (0x08 & 0x08);
  9008  001994  C00A  FFD9         	movff	i2USBTransferOnePacket@handle,fsr2l
  9009  001998  C00B  FFDA         	movff	i2USBTransferOnePacket@handle+1,fsr2h
  9010  00199C  0E00               	movlw	0
  9011  00199E  86DB               	bsf	plusw2,3,c
  9012                           
  9013                           ;usb_device.c: 1033: handle->STAT.Val |= 0x80;
  9014  0019A0  C00A  FFD9         	movff	i2USBTransferOnePacket@handle,fsr2l
  9015  0019A4  C00B  FFDA         	movff	i2USBTransferOnePacket@handle+1,fsr2h
  9016  0019A8  0E00               	movlw	0
  9017  0019AA  8EDB               	bsf	plusw2,7,c
  9018                           
  9019                           ;usb_device.c: 1036: if(dir != 0)
  9020  0019AC  5001               	movf	i2USBTransferOnePacket@dir,w,c
  9021  0019AE  B4D8               	btfsc	status,2,c
  9022  0019B0  D018               	goto	i2l217
  9023                           
  9024                           ;usb_device.c: 1037: {
  9025                           ;usb_device.c: 1039: pBDTEntryIn[ep] = (BDT_ENTRY*)(((uintptr_t)pBDTEntryIn[ep]) ^ 0x000
      +                          4);
  9026  0019B2  5009               	movf	i2USBTransferOnePacket@ep,w,c
  9027  0019B4  0D02               	mullw	2
  9028  0019B6  0E72               	movlw	low _pBDTEntryIn
  9029  0019B8  24F3               	addwf	prodl,w,c
  9030  0019BA  6ED9               	movwf	fsr2l,c
  9031  0019BC  0E00               	movlw	high _pBDTEntryIn
  9032  0019BE  20F4               	addwfc	prodh,w,c
  9033  0019C0  6EDA               	movwf	fsr2h,c
  9034  0019C2  CFDE F005          	movff	postinc2,??i2_USBTransferOnePacket
  9035  0019C6  CFDD F006          	movff	postdec2,??i2_USBTransferOnePacket+1
  9036  0019CA  0E04               	movlw	4
  9037  0019CC  1805               	xorwf	??i2_USBTransferOnePacket,w,c
  9038  0019CE  6E07               	movwf	(??i2_USBTransferOnePacket+2)& (0+255),c
  9039  0019D0  5006               	movf	??i2_USBTransferOnePacket+1,w,c
  9040  0019D2  6E08               	movwf	(??i2_USBTransferOnePacket+3)& (0+255),c
  9041  0019D4  5009               	movf	i2USBTransferOnePacket@ep,w,c
  9042  0019D6  0D02               	mullw	2
  9043  0019D8  0E72               	movlw	low _pBDTEntryIn
  9044  0019DA  24F3               	addwf	prodl,w,c
  9045  0019DC  6ED9               	movwf	fsr2l,c
  9046  0019DE  0E00               	movlw	high _pBDTEntryIn
  9047  0019E0  D017               	goto	L13
  9048  0019E2                     i2l217:
  9049                           
  9050                           ;usb_device.c: 1041: else
  9051                           ;usb_device.c: 1042: {
  9052                           ;usb_device.c: 1044: pBDTEntryOut[ep] = (BDT_ENTRY*)(((uintptr_t)pBDTEntryOut[ep]) ^ 0x0
      +                          004);
  9053  0019E2  5009               	movf	i2USBTransferOnePacket@ep,w,c
  9054  0019E4  0D02               	mullw	2
  9055  0019E6  0E7A               	movlw	low _pBDTEntryOut
  9056  0019E8  24F3               	addwf	prodl,w,c
  9057  0019EA  6ED9               	movwf	fsr2l,c
  9058  0019EC  0E00               	movlw	high _pBDTEntryOut
  9059  0019EE  20F4               	addwfc	prodh,w,c
  9060  0019F0  6EDA               	movwf	fsr2h,c
  9061  0019F2  CFDE F005          	movff	postinc2,??i2_USBTransferOnePacket
  9062  0019F6  CFDD F006          	movff	postdec2,??i2_USBTransferOnePacket+1
  9063  0019FA  0E04               	movlw	4
  9064  0019FC  1805               	xorwf	??i2_USBTransferOnePacket,w,c
  9065  0019FE  6E07               	movwf	(??i2_USBTransferOnePacket+2)& (0+255),c
  9066  001A00  5006               	movf	??i2_USBTransferOnePacket+1,w,c
  9067  001A02  6E08               	movwf	(??i2_USBTransferOnePacket+3)& (0+255),c
  9068  001A04  5009               	movf	i2USBTransferOnePacket@ep,w,c
  9069  001A06  0D02               	mullw	2
  9070  001A08  0E7A               	movlw	low _pBDTEntryOut
  9071  001A0A  24F3               	addwf	prodl,w,c
  9072  001A0C  6ED9               	movwf	fsr2l,c
  9073  001A0E  0E00               	movlw	high _pBDTEntryOut
  9074  001A10                     L13:
  9075  001A10  20F4               	addwfc	prodh,w,c
  9076  001A12  6EDA               	movwf	fsr2h,c
  9077  001A14  C007  FFDE         	movff	??i2_USBTransferOnePacket+2,postinc2
  9078  001A18  C008  FFDD         	movff	??i2_USBTransferOnePacket+3,postdec2
  9079                           
  9080                           ;usb_device.c: 1045: }
  9081                           ;usb_device.c: 1046: return (void*)handle;
  9082  001A1C  C00A  F001         	movff	i2USBTransferOnePacket@handle,?i2_USBTransferOnePacket
  9083  001A20  C00B  F002         	movff	i2USBTransferOnePacket@handle+1,?i2_USBTransferOnePacket+1
  9084  001A24  0012               	return	
  9085  001A26                     __end_ofi2_USBTransferOnePacket:
  9086                           	opt stack 0
  9087                           pclatu	equ	0xFFB
  9088                           pclath	equ	0xFFA
  9089                           tblptru	equ	0xFF8
  9090                           tblptrh	equ	0xFF7
  9091                           tblptrl	equ	0xFF6
  9092                           tablat	equ	0xFF5
  9093                           prodh	equ	0xFF4
  9094                           prodl	equ	0xFF3
  9095                           intcon	equ	0xFF2
  9096                           postinc0	equ	0xFEE
  9097                           fsr0h	equ	0xFEA
  9098                           fsr0l	equ	0xFE9
  9099                           wreg	equ	0xFE8
  9100                           indf1	equ	0xFE7
  9101                           fsr1h	equ	0xFE2
  9102                           fsr1l	equ	0xFE1
  9103                           indf2	equ	0xFDF
  9104                           postinc2	equ	0xFDE
  9105                           postdec2	equ	0xFDD
  9106                           plusw2	equ	0xFDB
  9107                           fsr2h	equ	0xFDA
  9108                           fsr2l	equ	0xFD9
  9109                           status	equ	0xFD8
  9110                           
  9111 ;; *************** function _USBEnableEndpoint *****************
  9112 ;; Defined at:
  9113 ;;		line 878 in file "usb/src/usb_device.c"
  9114 ;; Parameters:    Size  Location     Type
  9115 ;;  ep              1    wreg     unsigned char 
  9116 ;;  options         1    8[COMRAM] unsigned char 
  9117 ;; Auto vars:     Size  Location     Type
  9118 ;;  ep              1   11[COMRAM] unsigned char 
  9119 ;;  p               2    9[COMRAM] PTR unsigned char 
  9120 ;;		 -> UEP0(1), 
  9121 ;; Return value:  Size  Location     Type
  9122 ;;                  1    wreg      void 
  9123 ;; Registers used:
  9124 ;;		wreg, fsr2l, fsr2h, status,2, status,0, prodl, prodh, cstack
  9125 ;; Tracked objects:
  9126 ;;		On entry : 0/0
  9127 ;;		On exit  : 0/0
  9128 ;;		Unchanged: 0/0
  9129 ;; Data sizes:     COMRAM   BANK0   BANK1   BANK2   BANK3   BANK4   BANK5   BANK6   BANK7
  9130 ;;      Params:         1       0       0       0       0       0       0       0       0
  9131 ;;      Locals:         3       0       0       0       0       0       0       0       0
  9132 ;;      Temps:          0       0       0       0       0       0       0       0       0
  9133 ;;      Totals:         4       0       0       0       0       0       0       0       0
  9134 ;;Total ram usage:        4 bytes
  9135 ;; Hardware stack levels used:    1
  9136 ;; Hardware stack levels required when called:    1
  9137 ;; This function calls:
  9138 ;;		_USBConfigureEndpoint
  9139 ;; This function is called by:
  9140 ;;		_CDCInitEP
  9141 ;; This function uses a non-reentrant model
  9142 ;;
  9143                           
  9144                           	psect	text43
  9145  00268C                     __ptext43:
  9146                           	opt stack 0
  9147  00268C                     _USBEnableEndpoint:
  9148                           	opt stack 21
  9149                           
  9150                           ;incstack = 0
  9151                           ;USBEnableEndpoint@ep stored from wreg
  9152  00268C  6E0C               	movwf	USBEnableEndpoint@ep,c
  9153                           
  9154                           ;usb_device.c: 880: unsigned char* p;
  9155                           ;usb_device.c: 884: if(options & 0x04)
  9156  00268E  A409               	btfss	USBEnableEndpoint@options,2,c
  9157  002690  D005               	goto	i2l208
  9158                           
  9159                           ;usb_device.c: 885: {
  9160                           ;usb_device.c: 886: USBConfigureEndpoint(ep, 0);
  9161  002692  0E00               	movlw	0
  9162  002694  6E01               	movwf	USBConfigureEndpoint@direction,c
  9163  002696  500C               	movf	USBEnableEndpoint@ep,w,c
  9164  002698  EC7E  F011         	call	_USBConfigureEndpoint
  9165  00269C                     i2l208:
  9166                           
  9167                           ;usb_device.c: 887: }
  9168                           ;usb_device.c: 888: if(options & 0x02)
  9169  00269C  A209               	btfss	USBEnableEndpoint@options,1,c
  9170  00269E  D005               	goto	i2l209
  9171                           
  9172                           ;usb_device.c: 889: {
  9173                           ;usb_device.c: 890: USBConfigureEndpoint(ep, 1);
  9174  0026A0  0E01               	movlw	1
  9175  0026A2  6E01               	movwf	USBConfigureEndpoint@direction,c
  9176  0026A4  500C               	movf	USBEnableEndpoint@ep,w,c
  9177  0026A6  EC7E  F011         	call	_USBConfigureEndpoint
  9178  0026AA                     i2l209:
  9179                           
  9180                           ;usb_device.c: 891: }
  9181                           ;usb_device.c: 899: p = (unsigned char*)(&UEP0+ep);
  9182  0026AA  500C               	movf	USBEnableEndpoint@ep,w,c
  9183  0026AC  0D01               	mullw	1
  9184  0026AE  0E70               	movlw	112
  9185  0026B0  24F3               	addwf	prodl,w,c
  9186  0026B2  6E0A               	movwf	USBEnableEndpoint@p,c
  9187  0026B4  0E0F               	movlw	15
  9188  0026B6  20F4               	addwfc	prodh,w,c
  9189  0026B8  6E0B               	movwf	USBEnableEndpoint@p+1,c
  9190                           
  9191                           ;usb_device.c: 901: *p = options;
  9192  0026BA  C00A  FFD9         	movff	USBEnableEndpoint@p,fsr2l
  9193  0026BE  C00B  FFDA         	movff	USBEnableEndpoint@p+1,fsr2h
  9194  0026C2  C009  FFDF         	movff	USBEnableEndpoint@options,indf2
  9195  0026C6  0012               	return		;funcret
  9196  0026C8                     __end_of_USBEnableEndpoint:
  9197                           	opt stack 0
  9198                           pclatu	equ	0xFFB
  9199                           pclath	equ	0xFFA
  9200                           tblptru	equ	0xFF8
  9201                           tblptrh	equ	0xFF7
  9202                           tblptrl	equ	0xFF6
  9203                           tablat	equ	0xFF5
  9204                           prodh	equ	0xFF4
  9205                           prodl	equ	0xFF3
  9206                           intcon	equ	0xFF2
  9207                           postinc0	equ	0xFEE
  9208                           fsr0h	equ	0xFEA
  9209                           fsr0l	equ	0xFE9
  9210                           wreg	equ	0xFE8
  9211                           indf1	equ	0xFE7
  9212                           fsr1h	equ	0xFE2
  9213                           fsr1l	equ	0xFE1
  9214                           indf2	equ	0xFDF
  9215                           postinc2	equ	0xFDE
  9216                           postdec2	equ	0xFDD
  9217                           plusw2	equ	0xFDB
  9218                           fsr2h	equ	0xFDA
  9219                           fsr2l	equ	0xFD9
  9220                           status	equ	0xFD8
  9221                           
  9222 ;; *************** function _USBConfigureEndpoint *****************
  9223 ;; Defined at:
  9224 ;;		line 1543 in file "usb/src/usb_device.c"
  9225 ;; Parameters:    Size  Location     Type
  9226 ;;  EPNum           1    wreg     unsigned char 
  9227 ;;  direction       1    0[COMRAM] unsigned char 
  9228 ;; Auto vars:     Size  Location     Type
  9229 ;;  EPNum           1    5[COMRAM] unsigned char 
  9230 ;;  handle          2    6[COMRAM] PTR volatile struct __BD
  9231 ;;		 -> BDT(64), 
  9232 ;; Return value:  Size  Location     Type
  9233 ;;                  1    wreg      void 
  9234 ;; Registers used:
  9235 ;;		wreg, fsr2l, fsr2h, status,2, status,0, prodl, prodh
  9236 ;; Tracked objects:
  9237 ;;		On entry : 0/0
  9238 ;;		On exit  : 0/0
  9239 ;;		Unchanged: 0/0
  9240 ;; Data sizes:     COMRAM   BANK0   BANK1   BANK2   BANK3   BANK4   BANK5   BANK6   BANK7
  9241 ;;      Params:         1       0       0       0       0       0       0       0       0
  9242 ;;      Locals:         3       0       0       0       0       0       0       0       0
  9243 ;;      Temps:          4       0       0       0       0       0       0       0       0
  9244 ;;      Totals:         8       0       0       0       0       0       0       0       0
  9245 ;;Total ram usage:        8 bytes
  9246 ;; Hardware stack levels used:    1
  9247 ;; This function calls:
  9248 ;;		Nothing
  9249 ;; This function is called by:
  9250 ;;		_USBEnableEndpoint
  9251 ;; This function uses a non-reentrant model
  9252 ;;
  9253                           
  9254                           	psect	text44
  9255  0022FC                     __ptext44:
  9256                           	opt stack 0
  9257  0022FC                     _USBConfigureEndpoint:
  9258                           	opt stack 21
  9259                           
  9260                           ;incstack = 0
  9261                           ;USBConfigureEndpoint@EPNum stored from wreg
  9262  0022FC  6E06               	movwf	USBConfigureEndpoint@EPNum,c
  9263                           
  9264                           ;usb_device.c: 1545: volatile BDT_ENTRY* handle;
  9265                           ;usb_device.c: 1549: handle = (volatile BDT_ENTRY*)&BDT[0];
  9266  0022FE  0E00               	movlw	0
  9267  002300  6E07               	movwf	USBConfigureEndpoint@handle,c
  9268  002302  0E04               	movlw	4
  9269  002304  6E08               	movwf	USBConfigureEndpoint@handle+1,c
  9270                           
  9271                           ;usb_device.c: 1550: handle += (4*EPNum+2*direction+0u);
  9272  002306  5001               	movf	USBConfigureEndpoint@direction,w,c
  9273  002308  6E02               	movwf	??_USBConfigureEndpoint& (0+255),c
  9274  00230A  6A03               	clrf	(??_USBConfigureEndpoint+1)& (0+255),c
  9275  00230C  90D8               	bcf	status,0,c
  9276  00230E  3602               	rlcf	??_USBConfigureEndpoint,f,c
  9277  002310  3603               	rlcf	??_USBConfigureEndpoint+1,f,c
  9278  002312  5006               	movf	USBConfigureEndpoint@EPNum,w,c
  9279  002314  6E04               	movwf	(??_USBConfigureEndpoint+2)& (0+255),c
  9280  002316  6A05               	clrf	(??_USBConfigureEndpoint+3)& (0+255),c
  9281  002318  90D8               	bcf	status,0,c
  9282  00231A  3604               	rlcf	??_USBConfigureEndpoint+2,f,c
  9283  00231C  3605               	rlcf	??_USBConfigureEndpoint+3,f,c
  9284  00231E  90D8               	bcf	status,0,c
  9285  002320  3604               	rlcf	??_USBConfigureEndpoint+2,f,c
  9286  002322  3605               	rlcf	??_USBConfigureEndpoint+3,f,c
  9287  002324  5002               	movf	??_USBConfigureEndpoint,w,c
  9288  002326  2604               	addwf	??_USBConfigureEndpoint+2,f,c
  9289  002328  5003               	movf	??_USBConfigureEndpoint+1,w,c
  9290  00232A  2205               	addwfc	??_USBConfigureEndpoint+3,f,c
  9291  00232C  90D8               	bcf	status,0,c
  9292  00232E  3604               	rlcf	??_USBConfigureEndpoint+2,f,c
  9293  002330  3605               	rlcf	??_USBConfigureEndpoint+3,f,c
  9294  002332  90D8               	bcf	status,0,c
  9295  002334  3604               	rlcf	??_USBConfigureEndpoint+2,f,c
  9296  002336  3605               	rlcf	??_USBConfigureEndpoint+3,f,c
  9297  002338  5004               	movf	??_USBConfigureEndpoint+2,w,c
  9298  00233A  2607               	addwf	USBConfigureEndpoint@handle,f,c
  9299  00233C  5005               	movf	??_USBConfigureEndpoint+3,w,c
  9300  00233E  2208               	addwfc	USBConfigureEndpoint@handle+1,f,c
  9301                           
  9302                           ;usb_device.c: 1552: handle->STAT.UOWN = 0;
  9303  002340  C007  FFD9         	movff	USBConfigureEndpoint@handle,fsr2l
  9304  002344  C008  FFDA         	movff	USBConfigureEndpoint@handle+1,fsr2h
  9305  002348  9EDF               	bcf	indf2,7,c
  9306                           
  9307                           ;usb_device.c: 1557: if(direction == 0)
  9308  00234A  5001               	movf	USBConfigureEndpoint@direction,w,c
  9309  00234C  A4D8               	btfss	status,2,c
  9310  00234E  D007               	goto	i2l255
  9311                           
  9312                           ;usb_device.c: 1558: {
  9313                           ;usb_device.c: 1559: pBDTEntryOut[EPNum] = handle;
  9314  002350  5006               	movf	USBConfigureEndpoint@EPNum,w,c
  9315  002352  0D02               	mullw	2
  9316  002354  0E7A               	movlw	low _pBDTEntryOut
  9317  002356  24F3               	addwf	prodl,w,c
  9318  002358  6ED9               	movwf	fsr2l,c
  9319  00235A  0E00               	movlw	high _pBDTEntryOut
  9320  00235C  D006               	goto	L14
  9321  00235E                     i2l255:
  9322                           
  9323                           ;usb_device.c: 1561: else
  9324                           ;usb_device.c: 1562: {
  9325                           ;usb_device.c: 1563: pBDTEntryIn[EPNum] = handle;
  9326  00235E  5006               	movf	USBConfigureEndpoint@EPNum,w,c
  9327  002360  0D02               	mullw	2
  9328  002362  0E72               	movlw	low _pBDTEntryIn
  9329  002364  24F3               	addwf	prodl,w,c
  9330  002366  6ED9               	movwf	fsr2l,c
  9331  002368  0E00               	movlw	high _pBDTEntryIn
  9332  00236A                     L14:
  9333  00236A  20F4               	addwfc	prodh,w,c
  9334  00236C  6EDA               	movwf	fsr2h,c
  9335  00236E  C007  FFDE         	movff	USBConfigureEndpoint@handle,postinc2
  9336  002372  C008  FFDD         	movff	USBConfigureEndpoint@handle+1,postdec2
  9337                           
  9338                           ;usb_device.c: 1564: }
  9339                           ;usb_device.c: 1567: handle->STAT.DTS = 0;
  9340  002376  C007  FFD9         	movff	USBConfigureEndpoint@handle,fsr2l
  9341  00237A  C008  FFDA         	movff	USBConfigureEndpoint@handle+1,fsr2h
  9342  00237E  9CDF               	bcf	indf2,6,c
  9343                           
  9344                           ;usb_device.c: 1568: (handle+1)->STAT.DTS = 1;
  9345  002380  EE20 F004          	lfsr	2,4
  9346  002384  5007               	movf	USBConfigureEndpoint@handle,w,c
  9347  002386  26D9               	addwf	fsr2l,f,c
  9348  002388  5008               	movf	USBConfigureEndpoint@handle+1,w,c
  9349  00238A  22DA               	addwfc	fsr2h,f,c
  9350  00238C  8CDF               	bsf	indf2,6,c
  9351  00238E  0012               	return		;funcret
  9352  002390                     __end_of_USBConfigureEndpoint:
  9353                           	opt stack 0
  9354                           pclatu	equ	0xFFB
  9355                           pclath	equ	0xFFA
  9356                           tblptru	equ	0xFF8
  9357                           tblptrh	equ	0xFF7
  9358                           tblptrl	equ	0xFF6
  9359                           tablat	equ	0xFF5
  9360                           prodh	equ	0xFF4
  9361                           prodl	equ	0xFF3
  9362                           intcon	equ	0xFF2
  9363                           postinc0	equ	0xFEE
  9364                           fsr0h	equ	0xFEA
  9365                           fsr0l	equ	0xFE9
  9366                           wreg	equ	0xFE8
  9367                           indf1	equ	0xFE7
  9368                           fsr1h	equ	0xFE2
  9369                           fsr1l	equ	0xFE1
  9370                           indf2	equ	0xFDF
  9371                           postinc2	equ	0xFDE
  9372                           postdec2	equ	0xFDD
  9373                           plusw2	equ	0xFDB
  9374                           fsr2h	equ	0xFDA
  9375                           fsr2l	equ	0xFD9
  9376                           status	equ	0xFD8
  9377                           
  9378 ;; *************** function _USBCtrlTrfOutHandler *****************
  9379 ;; Defined at:
  9380 ;;		line 2538 in file "usb/src/usb_device.c"
  9381 ;; Parameters:    Size  Location     Type
  9382 ;;		None
  9383 ;; Auto vars:     Size  Location     Type
  9384 ;;		None
  9385 ;; Return value:  Size  Location     Type
  9386 ;;                  1    wreg      void 
  9387 ;; Registers used:
  9388 ;;		wreg, fsr1l, fsr1h, fsr2l, fsr2h, status,2, status,0, prodl, prodh, cstack
  9389 ;; Tracked objects:
  9390 ;;		On entry : 0/0
  9391 ;;		On exit  : 0/0
  9392 ;;		Unchanged: 0/0
  9393 ;; Data sizes:     COMRAM   BANK0   BANK1   BANK2   BANK3   BANK4   BANK5   BANK6   BANK7
  9394 ;;      Params:         0       0       0       0       0       0       0       0       0
  9395 ;;      Locals:         0       0       0       0       0       0       0       0       0
  9396 ;;      Temps:          0       0       0       0       0       0       0       0       0
  9397 ;;      Totals:         0       0       0       0       0       0       0       0       0
  9398 ;;Total ram usage:        0 bytes
  9399 ;; Hardware stack levels used:    1
  9400 ;; Hardware stack levels required when called:    2
  9401 ;; This function calls:
  9402 ;;		_USBCtrlTrfRxService
  9403 ;; This function is called by:
  9404 ;;		_USBCtrlEPService
  9405 ;; This function uses a non-reentrant model
  9406 ;;
  9407                           
  9408                           	psect	text45
  9409  0024E4                     __ptext45:
  9410                           	opt stack 0
  9411  0024E4                     _USBCtrlTrfOutHandler:
  9412                           	opt stack 21
  9413                           
  9414                           ;usb_device.c: 2540: if(controlTransferState == 2)
  9415                           
  9416                           ;incstack = 0
  9417  0024E4  0E02               	movlw	2
  9418  0024E6  1850               	xorwf	_controlTransferState,w,c	;volatile
  9419  0024E8  A4D8               	btfss	status,2,c
  9420  0024EA  D003               	goto	i2l361
  9421                           
  9422                           ;usb_device.c: 2541: {
  9423                           ;usb_device.c: 2542: USBCtrlTrfRxService();
  9424  0024EC  EC88  F00B         	call	_USBCtrlTrfRxService	;wreg free
  9425                           
  9426                           ;usb_device.c: 2543: }
  9427  0024F0  0012               	return	
  9428  0024F2                     i2l361:
  9429                           
  9430                           ;usb_device.c: 2544: else
  9431                           ;usb_device.c: 2545: {
  9432                           ;usb_device.c: 2548: controlTransferState = 0;
  9433  0024F2  0E00               	movlw	0
  9434  0024F4  6E50               	movwf	_controlTransferState,c	;volatile
  9435                           
  9436                           ;usb_device.c: 2555: if(BothEP0OutUOWNsSet == 0)
  9437  0024F6  504D               	movf	_BothEP0OutUOWNsSet,w,c	;volatile
  9438  0024F8  A4D8               	btfss	status,2,c
  9439  0024FA  D01F               	goto	i2l363
  9440                           
  9441                           ;usb_device.c: 2556: {
  9442                           ;usb_device.c: 2557: pBDTEntryEP0OutNext->CNT = 8;
  9443  0024FC  EE20 F001          	lfsr	2,1
  9444  002500  503F               	movf	_pBDTEntryEP0OutNext,w,c
  9445  002502  26D9               	addwf	fsr2l,f,c
  9446  002504  5040               	movf	_pBDTEntryEP0OutNext+1,w,c
  9447  002506  22DA               	addwfc	fsr2h,f,c
  9448  002508  0E08               	movlw	8
  9449  00250A  6EDF               	movwf	indf2,c
  9450                           
  9451                           ;usb_device.c: 2558: pBDTEntryEP0OutNext->ADR = ((uint16_t)(&SetupPkt));
  9452  00250C  EE20 F002          	lfsr	2,2
  9453  002510  503F               	movf	_pBDTEntryEP0OutNext,w,c
  9454  002512  26D9               	addwf	fsr2l,f,c
  9455  002514  5040               	movf	_pBDTEntryEP0OutNext+1,w,c
  9456  002516  22DA               	addwfc	fsr2h,f,c
  9457  002518  0E40               	movlw	64
  9458  00251A  6EDE               	movwf	postinc2,c
  9459  00251C  0E04               	movlw	4
  9460  00251E  6EDD               	movwf	postdec2,c
  9461                           
  9462                           ;usb_device.c: 2559: pBDTEntryEP0OutNext->STAT.Val = 0x00|(0x08 & 0x08)|0x04;
  9463  002520  C03F  FFD9         	movff	_pBDTEntryEP0OutNext,fsr2l
  9464  002524  C040  FFDA         	movff	_pBDTEntryEP0OutNext+1,fsr2h
  9465  002528  0E0C               	movlw	12
  9466  00252A  6EDF               	movwf	indf2,c
  9467                           
  9468                           ;usb_device.c: 2560: pBDTEntryEP0OutNext->STAT.Val |= 0x80;
  9469  00252C  C03F  FFD9         	movff	_pBDTEntryEP0OutNext,fsr2l
  9470  002530  C040  FFDA         	movff	_pBDTEntryEP0OutNext+1,fsr2h
  9471  002534  0E00               	movlw	0
  9472  002536  8EDB               	bsf	plusw2,7,c
  9473                           
  9474                           ;usb_device.c: 2561: }
  9475  002538  0012               	return	
  9476  00253A                     i2l363:
  9477                           
  9478                           ;usb_device.c: 2562: else
  9479                           ;usb_device.c: 2563: {
  9480                           ;usb_device.c: 2564: BothEP0OutUOWNsSet = 0;
  9481  00253A  0E00               	movlw	0
  9482  00253C  6E4D               	movwf	_BothEP0OutUOWNsSet,c	;volatile
  9483  00253E  0012               	return	
  9484  002540                     __end_of_USBCtrlTrfOutHandler:
  9485                           	opt stack 0
  9486                           pclatu	equ	0xFFB
  9487                           pclath	equ	0xFFA
  9488                           tblptru	equ	0xFF8
  9489                           tblptrh	equ	0xFF7
  9490                           tblptrl	equ	0xFF6
  9491                           tablat	equ	0xFF5
  9492                           prodh	equ	0xFF4
  9493                           prodl	equ	0xFF3
  9494                           intcon	equ	0xFF2
  9495                           postinc0	equ	0xFEE
  9496                           fsr0h	equ	0xFEA
  9497                           fsr0l	equ	0xFE9
  9498                           wreg	equ	0xFE8
  9499                           indf1	equ	0xFE7
  9500                           fsr1h	equ	0xFE2
  9501                           fsr1l	equ	0xFE1
  9502                           indf2	equ	0xFDF
  9503                           postinc2	equ	0xFDE
  9504                           postdec2	equ	0xFDD
  9505                           plusw2	equ	0xFDB
  9506                           fsr2h	equ	0xFDA
  9507                           fsr2l	equ	0xFD9
  9508                           status	equ	0xFD8
  9509                           
  9510 ;; *************** function _USBCtrlTrfRxService *****************
  9511 ;; Defined at:
  9512 ;;		line 1852 in file "usb/src/usb_device.c"
  9513 ;; Parameters:    Size  Location     Type
  9514 ;;		None
  9515 ;; Auto vars:     Size  Location     Type
  9516 ;;  byteToRead      1    1[COMRAM] unsigned char 
  9517 ;;  i               1    0[COMRAM] unsigned char 
  9518 ;; Return value:  Size  Location     Type
  9519 ;;                  1    wreg      void 
  9520 ;; Registers used:
  9521 ;;		wreg, fsr1l, fsr1h, fsr2l, fsr2h, status,2, status,0, prodl, prodh, cstack
  9522 ;; Tracked objects:
  9523 ;;		On entry : 0/0
  9524 ;;		On exit  : 0/0
  9525 ;;		Unchanged: 0/0
  9526 ;; Data sizes:     COMRAM   BANK0   BANK1   BANK2   BANK3   BANK4   BANK5   BANK6   BANK7
  9527 ;;      Params:         0       0       0       0       0       0       0       0       0
  9528 ;;      Locals:         2       0       0       0       0       0       0       0       0
  9529 ;;      Temps:          0       0       0       0       0       0       0       0       0
  9530 ;;      Totals:         2       0       0       0       0       0       0       0       0
  9531 ;;Total ram usage:        2 bytes
  9532 ;; Hardware stack levels used:    1
  9533 ;; Hardware stack levels required when called:    1
  9534 ;; This function calls:
  9535 ;;		_USBCtrlEPAllowStatusStage
  9536 ;; This function is called by:
  9537 ;;		_USBCtrlTrfOutHandler
  9538 ;; This function uses a non-reentrant model
  9539 ;;
  9540                           
  9541                           	psect	text46
  9542  001710                     __ptext46:
  9543                           	opt stack 0
  9544  001710                     _USBCtrlTrfRxService:
  9545                           	opt stack 21
  9546                           
  9547                           ;usb_device.c: 1854: uint8_t byteToRead;
  9548                           ;usb_device.c: 1855: uint8_t i;
  9549                           ;usb_device.c: 1859: byteToRead = pBDTEntryEP0OutCurrent->CNT;
  9550                           
  9551                           ;incstack = 0
  9552  001710  EE20 F001          	lfsr	2,1
  9553  001714  5041               	movf	_pBDTEntryEP0OutCurrent,w,c
  9554  001716  26D9               	addwf	fsr2l,f,c
  9555  001718  5042               	movf	_pBDTEntryEP0OutCurrent+1,w,c
  9556  00171A  22DA               	addwfc	fsr2h,f,c
  9557  00171C  50DF               	movf	indf2,w,c
  9558  00171E  6E02               	movwf	USBCtrlTrfRxService@byteToRead,c
  9559                           
  9560                           ;usb_device.c: 1865: if(byteToRead > outPipes[0].wCount.Val)
  9561  001720  5002               	movf	USBCtrlTrfRxService@byteToRead,w,c
  9562  001722  0100               	movlb	0	; () banked
  9563  001724  5D6E               	subwf	(_outPipes+4)& (0+255),w,b	;volatile
  9564  001726  0E00               	movlw	0
  9565  001728  596F               	subwfb	(_outPipes+5)& (0+255),w,b	;volatile
  9566  00172A  A0D8               	btfss	status,0,c
  9567                           
  9568                           ; BSR set to: 0
  9569                           ;usb_device.c: 1866: {
  9570                           ;usb_device.c: 1867: byteToRead = outPipes[0].wCount.Val;
  9571  00172C  C06E  F002         	movff	_outPipes+4,USBCtrlTrfRxService@byteToRead	;volatile
  9572                           
  9573                           ; BSR set to: 0
  9574                           ;usb_device.c: 1868: }
  9575                           ;usb_device.c: 1870: outPipes[0].wCount.Val -= byteToRead;
  9576                           
  9577                           ; BSR set to: 0
  9578  001730  5002               	movf	USBCtrlTrfRxService@byteToRead,w,c
  9579  001732  5F6E               	subwf	(_outPipes+4)& (0+255),f,b	;volatile
  9580  001734  0E00               	movlw	0
  9581  001736  5B6F               	subwfb	(_outPipes+5)& (0+255),f,b	;volatile
  9582                           
  9583                           ; BSR set to: 0
  9584                           ;usb_device.c: 1874: for(i=0;i<byteToRead;i++)
  9585  001738  0E00               	movlw	0
  9586  00173A  6E01               	movwf	USBCtrlTrfRxService@i,c
  9587  00173C  D011               	goto	i2l289
  9588  00173E                     
  9589                           ; BSR set to: 0
  9590                           ;usb_device.c: 1875: {
  9591                           ;usb_device.c: 1876: *outPipes[0].pDst.bRam++ = CtrlTrfData[i];
  9592                           
  9593                           ; BSR set to: 0
  9594  00173E  5001               	movf	USBCtrlTrfRxService@i,w,c
  9595  001740  0D01               	mullw	1
  9596  001742  0E48               	movlw	72
  9597  001744  24F3               	addwf	prodl,w,c
  9598  001746  6ED9               	movwf	fsr2l,c
  9599  001748  0E04               	movlw	4
  9600  00174A  20F4               	addwfc	prodh,w,c
  9601  00174C  6EDA               	movwf	fsr2h,c
  9602  00174E  C06A  FFE1         	movff	_outPipes,fsr1l	;volatile
  9603  001752  C06B  FFE2         	movff	_outPipes+1,fsr1h	;volatile
  9604  001756  CFDF FFE7          	movff	indf2,indf1
  9605                           
  9606                           ; BSR set to: 0
  9607  00175A  4B6A               	infsnz	_outPipes& (0+255),f,b	;volatile
  9608  00175C  2B6B               	incf	(_outPipes+1)& (0+255),f,b	;volatile
  9609                           
  9610                           ; BSR set to: 0
  9611  00175E  2A01               	incf	USBCtrlTrfRxService@i,f,c
  9612  001760                     i2l289:
  9613                           
  9614                           ; BSR set to: 0
  9615                           
  9616                           ; BSR set to: 0
  9617  001760  5002               	movf	USBCtrlTrfRxService@byteToRead,w,c
  9618  001762  5C01               	subwf	USBCtrlTrfRxService@i,w,c
  9619  001764  A0D8               	btfss	status,0,c
  9620  001766  D7EB               	goto	i2l290
  9621                           
  9622                           ; BSR set to: 0
  9623                           ;usb_device.c: 1877: }
  9624                           ;usb_device.c: 1881: if(outPipes[0].wCount.Val > 0)
  9625                           
  9626                           ; BSR set to: 0
  9627  001768  516E               	movf	(_outPipes+4)& (0+255),w,b	;volatile
  9628  00176A  116F               	iorwf	(_outPipes+5)& (0+255),w,b	;volatile
  9629  00176C  B4D8               	btfsc	status,2,c
  9630  00176E  D032               	goto	i2l292
  9631                           
  9632                           ; BSR set to: 0
  9633                           ;usb_device.c: 1882: {
  9634                           ;usb_device.c: 1883: pBDTEntryEP0OutNext->CNT = 8;
  9635  001770  EE20 F001          	lfsr	2,1
  9636  001774  503F               	movf	_pBDTEntryEP0OutNext,w,c
  9637  001776  26D9               	addwf	fsr2l,f,c
  9638  001778  5040               	movf	_pBDTEntryEP0OutNext+1,w,c
  9639  00177A  22DA               	addwfc	fsr2h,f,c
  9640  00177C  0E08               	movlw	8
  9641  00177E  6EDF               	movwf	indf2,c
  9642                           
  9643                           ;usb_device.c: 1884: pBDTEntryEP0OutNext->ADR = ((uint16_t)(&CtrlTrfData));
  9644  001780  EE20 F002          	lfsr	2,2
  9645  001784  503F               	movf	_pBDTEntryEP0OutNext,w,c
  9646  001786  26D9               	addwf	fsr2l,f,c
  9647  001788  5040               	movf	_pBDTEntryEP0OutNext+1,w,c
  9648  00178A  22DA               	addwfc	fsr2h,f,c
  9649  00178C  0E48               	movlw	72
  9650  00178E  6EDE               	movwf	postinc2,c
  9651  001790  0E04               	movlw	4
  9652  001792  6EDD               	movwf	postdec2,c
  9653                           
  9654                           ; BSR set to: 0
  9655                           ;usb_device.c: 1885: if(pBDTEntryEP0OutCurrent->STAT.DTS == 0)
  9656  001794  C041  FFD9         	movff	_pBDTEntryEP0OutCurrent,fsr2l
  9657  001798  C042  FFDA         	movff	_pBDTEntryEP0OutCurrent+1,fsr2h
  9658  00179C  BCDF               	btfsc	indf2,6,c
  9659  00179E  D00D               	goto	i2l293
  9660                           
  9661                           ; BSR set to: 0
  9662                           ;usb_device.c: 1886: {
  9663                           ;usb_device.c: 1887: pBDTEntryEP0OutNext->STAT.Val = 0x40|(0x08 & 0x08);
  9664  0017A0  C03F  FFD9         	movff	_pBDTEntryEP0OutNext,fsr2l
  9665  0017A4  C040  FFDA         	movff	_pBDTEntryEP0OutNext+1,fsr2h
  9666  0017A8  0E48               	movlw	72
  9667  0017AA  6EDF               	movwf	indf2,c
  9668                           
  9669                           ; BSR set to: 0
  9670                           ;usb_device.c: 1888: pBDTEntryEP0OutNext->STAT.Val |= 0x80;
  9671  0017AC  C03F  FFD9         	movff	_pBDTEntryEP0OutNext,fsr2l
  9672  0017B0  C040  FFDA         	movff	_pBDTEntryEP0OutNext+1,fsr2h
  9673  0017B4  0E00               	movlw	0
  9674  0017B6  8EDB               	bsf	plusw2,7,c
  9675                           
  9676                           ;usb_device.c: 1889: }
  9677  0017B8  0012               	return	
  9678  0017BA                     i2l293:
  9679                           
  9680                           ; BSR set to: 0
  9681                           ;usb_device.c: 1890: else
  9682                           ;usb_device.c: 1891: {
  9683                           ;usb_device.c: 1892: pBDTEntryEP0OutNext->STAT.Val = 0x00|(0x08 & 0x08);
  9684                           
  9685                           ; BSR set to: 0
  9686  0017BA  C03F  FFD9         	movff	_pBDTEntryEP0OutNext,fsr2l
  9687  0017BE  C040  FFDA         	movff	_pBDTEntryEP0OutNext+1,fsr2h
  9688  0017C2  0E08               	movlw	8
  9689  0017C4  6EDF               	movwf	indf2,c
  9690                           
  9691                           ; BSR set to: 0
  9692                           ;usb_device.c: 1893: pBDTEntryEP0OutNext->STAT.Val |= 0x80;
  9693  0017C6  C03F  FFD9         	movff	_pBDTEntryEP0OutNext,fsr2l
  9694  0017CA  C040  FFDA         	movff	_pBDTEntryEP0OutNext+1,fsr2h
  9695  0017CE  0E00               	movlw	0
  9696  0017D0  8EDB               	bsf	plusw2,7,c
  9697                           
  9698                           ; BSR set to: 0
  9699                           ;usb_device.c: 1894: }
  9700                           ;usb_device.c: 1895: }
  9701  0017D2  0012               	return	
  9702  0017D4                     i2l292:
  9703                           
  9704                           ; BSR set to: 0
  9705                           ;usb_device.c: 1896: else
  9706                           ;usb_device.c: 1897: {
  9707                           ;usb_device.c: 1901: pBDTEntryEP0OutNext->CNT = 8;
  9708                           
  9709                           ; BSR set to: 0
  9710  0017D4  EE20 F001          	lfsr	2,1
  9711  0017D8  503F               	movf	_pBDTEntryEP0OutNext,w,c
  9712  0017DA  26D9               	addwf	fsr2l,f,c
  9713  0017DC  5040               	movf	_pBDTEntryEP0OutNext+1,w,c
  9714  0017DE  22DA               	addwfc	fsr2h,f,c
  9715  0017E0  0E08               	movlw	8
  9716  0017E2  6EDF               	movwf	indf2,c
  9717                           
  9718                           ;usb_device.c: 1902: pBDTEntryEP0OutNext->ADR = ((uint16_t)(&SetupPkt));
  9719  0017E4  EE20 F002          	lfsr	2,2
  9720  0017E8  503F               	movf	_pBDTEntryEP0OutNext,w,c
  9721  0017EA  26D9               	addwf	fsr2l,f,c
  9722  0017EC  5040               	movf	_pBDTEntryEP0OutNext+1,w,c
  9723  0017EE  22DA               	addwfc	fsr2h,f,c
  9724  0017F0  0E40               	movlw	64
  9725  0017F2  6EDE               	movwf	postinc2,c
  9726  0017F4  0E04               	movlw	4
  9727  0017F6  6EDD               	movwf	postdec2,c
  9728                           
  9729                           ; BSR set to: 0
  9730                           ;usb_device.c: 1906: pBDTEntryEP0OutNext->STAT.Val = 0x04;
  9731  0017F8  C03F  FFD9         	movff	_pBDTEntryEP0OutNext,fsr2l
  9732  0017FC  C040  FFDA         	movff	_pBDTEntryEP0OutNext+1,fsr2h
  9733  001800  0E04               	movlw	4
  9734  001802  6EDF               	movwf	indf2,c
  9735                           
  9736                           ; BSR set to: 0
  9737                           ;usb_device.c: 1907: pBDTEntryEP0OutNext->STAT.Val |= 0x80;
  9738  001804  C03F  FFD9         	movff	_pBDTEntryEP0OutNext,fsr2l
  9739  001808  C040  FFDA         	movff	_pBDTEntryEP0OutNext+1,fsr2h
  9740  00180C  0E00               	movlw	0
  9741  00180E  8EDB               	bsf	plusw2,7,c
  9742                           
  9743                           ; BSR set to: 0
  9744                           ;usb_device.c: 1926: }
  9745                           ;usb_device.c: 1927: outPipes[0].info.bits.busy = 0;
  9746                           
  9747                           ; BSR set to: 0
  9748                           ;usb_device.c: 1915: {
  9749                           ;usb_device.c: 1921: outPipes[0].pFunc();
  9750  001810  9F6D               	bcf	(_outPipes+3)& (0+255),7,b	;volatile
  9751                           
  9752                           ; BSR set to: 0
  9753                           ;usb_device.c: 1941: if(USBDeferStatusStagePacket == 0)
  9754  001812  504B               	movf	_USBDeferStatusStagePacket,w,c	;volatile
  9755  001814  A4D8               	btfss	status,2,c
  9756  001816  0012               	return	
  9757                           
  9758                           ; BSR set to: 0
  9759                           ;usb_device.c: 1942: {
  9760                           ;usb_device.c: 1943: USBCtrlEPAllowStatusStage();
  9761  001818  ECD3  F00E         	call	_USBCtrlEPAllowStatusStage	;wreg free
  9762  00181C  0012               	return	
  9763  00181E                     __end_of_USBCtrlTrfRxService:
  9764                           	opt stack 0
  9765                           pclatu	equ	0xFFB
  9766                           pclath	equ	0xFFA
  9767                           tblptru	equ	0xFF8
  9768                           tblptrh	equ	0xFF7
  9769                           tblptrl	equ	0xFF6
  9770                           tablat	equ	0xFF5
  9771                           prodh	equ	0xFF4
  9772                           prodl	equ	0xFF3
  9773                           intcon	equ	0xFF2
  9774                           postinc0	equ	0xFEE
  9775                           fsr0h	equ	0xFEA
  9776                           fsr0l	equ	0xFE9
  9777                           wreg	equ	0xFE8
  9778                           indf1	equ	0xFE7
  9779                           fsr1h	equ	0xFE2
  9780                           fsr1l	equ	0xFE1
  9781                           indf2	equ	0xFDF
  9782                           postinc2	equ	0xFDE
  9783                           postdec2	equ	0xFDD
  9784                           plusw2	equ	0xFDB
  9785                           fsr2h	equ	0xFDA
  9786                           fsr2l	equ	0xFD9
  9787                           status	equ	0xFD8
  9788                           
  9789 ;; *************** function _USBCtrlEPAllowStatusStage *****************
  9790 ;; Defined at:
  9791 ;;		line 1416 in file "usb/src/usb_device.c"
  9792 ;; Parameters:    Size  Location     Type
  9793 ;;		None
  9794 ;; Auto vars:     Size  Location     Type
  9795 ;;		None
  9796 ;; Return value:  Size  Location     Type
  9797 ;;                  1    wreg      void 
  9798 ;; Registers used:
  9799 ;;		wreg, fsr2l, fsr2h, status,2, status,0
  9800 ;; Tracked objects:
  9801 ;;		On entry : 0/0
  9802 ;;		On exit  : 0/0
  9803 ;;		Unchanged: 0/0
  9804 ;; Data sizes:     COMRAM   BANK0   BANK1   BANK2   BANK3   BANK4   BANK5   BANK6   BANK7
  9805 ;;      Params:         0       0       0       0       0       0       0       0       0
  9806 ;;      Locals:         0       0       0       0       0       0       0       0       0
  9807 ;;      Temps:          0       0       0       0       0       0       0       0       0
  9808 ;;      Totals:         0       0       0       0       0       0       0       0       0
  9809 ;;Total ram usage:        0 bytes
  9810 ;; Hardware stack levels used:    1
  9811 ;; This function calls:
  9812 ;;		Nothing
  9813 ;; This function is called by:
  9814 ;;		_USBDeviceTasks
  9815 ;;		_USBCtrlEPServiceComplete
  9816 ;;		_USBCtrlTrfRxService
  9817 ;; This function uses a non-reentrant model
  9818 ;;
  9819                           
  9820                           	psect	text47
  9821  001DA6                     __ptext47:
  9822                           	opt stack 0
  9823  001DA6                     _USBCtrlEPAllowStatusStage:
  9824                           	opt stack 21
  9825                           
  9826                           ;usb_device.c: 1423: if(USBStatusStageEnabledFlag1 == 0)
  9827                           
  9828                           ;incstack = 0
  9829  001DA6  504A               	movf	_USBStatusStageEnabledFlag1,w,c	;volatile
  9830  001DA8  A4D8               	btfss	status,2,c
  9831  001DAA  0012               	return	
  9832                           
  9833                           ;usb_device.c: 1424: {
  9834                           ;usb_device.c: 1425: USBStatusStageEnabledFlag1 = 1;
  9835  001DAC  0E01               	movlw	1
  9836  001DAE  6E4A               	movwf	_USBStatusStageEnabledFlag1,c	;volatile
  9837                           
  9838                           ;usb_device.c: 1426: if(USBStatusStageEnabledFlag2 == 0)
  9839  001DB0  5049               	movf	_USBStatusStageEnabledFlag2,w,c	;volatile
  9840  001DB2  A4D8               	btfss	status,2,c
  9841  001DB4  0012               	return	
  9842                           
  9843                           ;usb_device.c: 1427: {
  9844                           ;usb_device.c: 1428: USBStatusStageEnabledFlag2 = 1;
  9845  001DB6  0E01               	movlw	1
  9846  001DB8  6E49               	movwf	_USBStatusStageEnabledFlag2,c	;volatile
  9847                           
  9848                           ;usb_device.c: 1432: if(controlTransferState == 2)
  9849  001DBA  0E02               	movlw	2
  9850  001DBC  1850               	xorwf	_controlTransferState,w,c	;volatile
  9851  001DBE  A4D8               	btfss	status,2,c
  9852  001DC0  D016               	goto	i2l243
  9853                           
  9854                           ;usb_device.c: 1433: {
  9855                           ;usb_device.c: 1434: pBDTEntryIn[0]->CNT = 0;
  9856  001DC2  0100               	movlb	0	; () banked
  9857  001DC4  EE20 F001          	lfsr	2,1
  9858  001DC8  5172               	movf	_pBDTEntryIn& (0+255),w,b
  9859  001DCA  26D9               	addwf	fsr2l,f,c
  9860  001DCC  5173               	movf	(_pBDTEntryIn+1)& (0+255),w,b
  9861  001DCE  22DA               	addwfc	fsr2h,f,c
  9862  001DD0  0E00               	movlw	0
  9863  001DD2  6EDF               	movwf	indf2,c
  9864                           
  9865                           ; BSR set to: 0
  9866                           ;usb_device.c: 1435: pBDTEntryIn[0]->STAT.Val = 0x40|(0x08 & 0x08);
  9867  001DD4  C072  FFD9         	movff	_pBDTEntryIn,fsr2l
  9868  001DD8  C073  FFDA         	movff	_pBDTEntryIn+1,fsr2h
  9869  001DDC  0E48               	movlw	72
  9870  001DDE  6EDF               	movwf	indf2,c
  9871                           
  9872                           ; BSR set to: 0
  9873                           ;usb_device.c: 1436: pBDTEntryIn[0]->STAT.Val |= 0x80;
  9874  001DE0  C072  FFD9         	movff	_pBDTEntryIn,fsr2l
  9875  001DE4  C073  FFDA         	movff	_pBDTEntryIn+1,fsr2h
  9876  001DE8  0E00               	movlw	0
  9877  001DEA  8EDB               	bsf	plusw2,7,c
  9878                           
  9879                           ;usb_device.c: 1437: }
  9880  001DEC  0012               	return	
  9881  001DEE                     i2l243:
  9882                           
  9883                           ;usb_device.c: 1438: else if(controlTransferState == 1)
  9884                           
  9885                           ; BSR set to: 0
  9886  001DEE  0450               	decf	_controlTransferState,w,c	;volatile
  9887  001DF0  A4D8               	btfss	status,2,c
  9888  001DF2  0012               	return	
  9889                           
  9890                           ;usb_device.c: 1439: {
  9891                           ;usb_device.c: 1440: BothEP0OutUOWNsSet = 0;
  9892  001DF4  0E00               	movlw	0
  9893  001DF6  6E4D               	movwf	_BothEP0OutUOWNsSet,c	;volatile
  9894                           
  9895                           ;usb_device.c: 1445: pBDTEntryEP0OutCurrent->CNT = 8;
  9896  001DF8  EE20 F001          	lfsr	2,1
  9897  001DFC  5041               	movf	_pBDTEntryEP0OutCurrent,w,c
  9898  001DFE  26D9               	addwf	fsr2l,f,c
  9899  001E00  5042               	movf	_pBDTEntryEP0OutCurrent+1,w,c
  9900  001E02  22DA               	addwfc	fsr2h,f,c
  9901  001E04  0E08               	movlw	8
  9902  001E06  6EDF               	movwf	indf2,c
  9903                           
  9904                           ;usb_device.c: 1446: pBDTEntryEP0OutCurrent->ADR = ((uint16_t)(&SetupPkt));
  9905  001E08  EE20 F002          	lfsr	2,2
  9906  001E0C  5041               	movf	_pBDTEntryEP0OutCurrent,w,c
  9907  001E0E  26D9               	addwf	fsr2l,f,c
  9908  001E10  5042               	movf	_pBDTEntryEP0OutCurrent+1,w,c
  9909  001E12  22DA               	addwfc	fsr2h,f,c
  9910  001E14  0E40               	movlw	64
  9911  001E16  6EDE               	movwf	postinc2,c
  9912  001E18  0E04               	movlw	4
  9913  001E1A  6EDD               	movwf	postdec2,c
  9914                           
  9915                           ;usb_device.c: 1447: pBDTEntryEP0OutCurrent->STAT.Val = 0x04;
  9916  001E1C  C041  FFD9         	movff	_pBDTEntryEP0OutCurrent,fsr2l
  9917  001E20  C042  FFDA         	movff	_pBDTEntryEP0OutCurrent+1,fsr2h
  9918  001E24  0E04               	movlw	4
  9919  001E26  6EDF               	movwf	indf2,c
  9920                           
  9921                           ;usb_device.c: 1448: pBDTEntryEP0OutCurrent->STAT.Val |= 0x80;
  9922  001E28  C041  FFD9         	movff	_pBDTEntryEP0OutCurrent,fsr2l
  9923  001E2C  C042  FFDA         	movff	_pBDTEntryEP0OutCurrent+1,fsr2h
  9924  001E30  0E00               	movlw	0
  9925  001E32  8EDB               	bsf	plusw2,7,c
  9926                           
  9927                           ;usb_device.c: 1449: BothEP0OutUOWNsSet = 1;
  9928  001E34  0E01               	movlw	1
  9929  001E36  6E4D               	movwf	_BothEP0OutUOWNsSet,c	;volatile
  9930                           
  9931                           ;usb_device.c: 1453: pBDTEntryEP0OutNext->CNT = 8;
  9932  001E38  EE20 F001          	lfsr	2,1
  9933  001E3C  503F               	movf	_pBDTEntryEP0OutNext,w,c
  9934  001E3E  26D9               	addwf	fsr2l,f,c
  9935  001E40  5040               	movf	_pBDTEntryEP0OutNext+1,w,c
  9936  001E42  22DA               	addwfc	fsr2h,f,c
  9937  001E44  0E08               	movlw	8
  9938  001E46  6EDF               	movwf	indf2,c
  9939                           
  9940                           ;usb_device.c: 1454: pBDTEntryEP0OutNext->ADR = ((uint16_t)(&SetupPkt));
  9941  001E48  EE20 F002          	lfsr	2,2
  9942  001E4C  503F               	movf	_pBDTEntryEP0OutNext,w,c
  9943  001E4E  26D9               	addwf	fsr2l,f,c
  9944  001E50  5040               	movf	_pBDTEntryEP0OutNext+1,w,c
  9945  001E52  22DA               	addwfc	fsr2h,f,c
  9946  001E54  0E40               	movlw	64
  9947  001E56  6EDE               	movwf	postinc2,c
  9948  001E58  0E04               	movlw	4
  9949  001E5A  6EDD               	movwf	postdec2,c
  9950                           
  9951                           ;usb_device.c: 1455: pBDTEntryEP0OutNext->STAT.Val = 0x80;
  9952  001E5C  C03F  FFD9         	movff	_pBDTEntryEP0OutNext,fsr2l
  9953  001E60  C040  FFDA         	movff	_pBDTEntryEP0OutNext+1,fsr2h
  9954  001E64  0E80               	movlw	128
  9955  001E66  6EDF               	movwf	indf2,c
  9956  001E68  0012               	return	
  9957  001E6A                     __end_of_USBCtrlEPAllowStatusStage:
  9958                           	opt stack 0
  9959                           pclatu	equ	0xFFB
  9960                           pclath	equ	0xFFA
  9961                           tblptru	equ	0xFF8
  9962                           tblptrh	equ	0xFF7
  9963                           tblptrl	equ	0xFF6
  9964                           tablat	equ	0xFF5
  9965                           prodh	equ	0xFF4
  9966                           prodl	equ	0xFF3
  9967                           intcon	equ	0xFF2
  9968                           postinc0	equ	0xFEE
  9969                           fsr0h	equ	0xFEA
  9970                           fsr0l	equ	0xFE9
  9971                           wreg	equ	0xFE8
  9972                           indf1	equ	0xFE7
  9973                           fsr1h	equ	0xFE2
  9974                           fsr1l	equ	0xFE1
  9975                           indf2	equ	0xFDF
  9976                           postinc2	equ	0xFDE
  9977                           postdec2	equ	0xFDD
  9978                           plusw2	equ	0xFDB
  9979                           fsr2h	equ	0xFDA
  9980                           fsr2l	equ	0xFD9
  9981                           status	equ	0xFD8
  9982                           
  9983 ;; *************** function _USBCtrlTrfInHandler *****************
  9984 ;; Defined at:
  9985 ;;		line 2592 in file "usb/src/usb_device.c"
  9986 ;; Parameters:    Size  Location     Type
  9987 ;;		None
  9988 ;; Auto vars:     Size  Location     Type
  9989 ;;  lastDTS         1    1[COMRAM] unsigned char 
  9990 ;; Return value:  Size  Location     Type
  9991 ;;                  1    wreg      void 
  9992 ;; Registers used:
  9993 ;;		wreg, fsr1l, fsr1h, fsr2l, fsr2h, status,2, status,0, tblptrl, tblptrh, tblptru, cstack
  9994 ;; Tracked objects:
  9995 ;;		On entry : 0/0
  9996 ;;		On exit  : 0/0
  9997 ;;		Unchanged: 0/0
  9998 ;; Data sizes:     COMRAM   BANK0   BANK1   BANK2   BANK3   BANK4   BANK5   BANK6   BANK7
  9999 ;;      Params:         0       0       0       0       0       0       0       0       0
 10000 ;;      Locals:         1       0       0       0       0       0       0       0       0
 10001 ;;      Temps:          0       0       0       0       0       0       0       0       0
 10002 ;;      Totals:         1       0       0       0       0       0       0       0       0
 10003 ;;Total ram usage:        1 bytes
 10004 ;; Hardware stack levels used:    1
 10005 ;; Hardware stack levels required when called:    1
 10006 ;; This function calls:
 10007 ;;		_USBCtrlTrfTxService
 10008 ;; This function is called by:
 10009 ;;		_USBCtrlEPService
 10010 ;; This function uses a non-reentrant model
 10011 ;;
 10012                           
 10013                           	psect	text48
 10014  001E6A                     __ptext48:
 10015                           	opt stack 0
 10016  001E6A                     _USBCtrlTrfInHandler:
 10017                           	opt stack 22
 10018                           
 10019                           ;usb_device.c: 2594: uint8_t lastDTS;
 10020                           ;usb_device.c: 2596: lastDTS = pBDTEntryIn[0]->STAT.DTS;
 10021                           
 10022                           ;incstack = 0
 10023  001E6A  C072  FFD9         	movff	_pBDTEntryIn,fsr2l
 10024  001E6E  C073  FFDA         	movff	_pBDTEntryIn+1,fsr2h
 10025  001E72  0100               	movlb	0	; () banked
 10026  001E74  0E00               	movlw	0
 10027  001E76  BCDF               	btfsc	indf2,6,c
 10028  001E78  0E01               	movlw	1
 10029  001E7A  6E02               	movwf	USBCtrlTrfInHandler@lastDTS,c
 10030                           
 10031                           ; BSR set to: 0
 10032                           ;usb_device.c: 2599: pBDTEntryIn[0] = (volatile BDT_ENTRY*)(((uintptr_t)pBDTEntryIn[0]) 
      +                          ^ 0x0004);
 10033  001E7C  0E04               	movlw	4
 10034  001E7E  1972               	xorwf	_pBDTEntryIn& (0+255),w,b
 10035  001E80  6F72               	movwf	_pBDTEntryIn& (0+255),b
 10036  001E82  5173               	movf	(_pBDTEntryIn+1)& (0+255),w,b
 10037  001E84  6F73               	movwf	(_pBDTEntryIn+1)& (0+255),b
 10038                           
 10039                           ; BSR set to: 0
 10040                           ;usb_device.c: 2604: if(USBDeviceState == ADR_PENDING_STATE)
 10041  001E86  0E08               	movlw	8
 10042  001E88  1852               	xorwf	_USBDeviceState,w,c	;volatile
 10043  001E8A  A4D8               	btfss	status,2,c
 10044  001E8C  D00B               	goto	i2l370
 10045                           
 10046                           ; BSR set to: 0
 10047                           ;usb_device.c: 2605: {
 10048                           ;usb_device.c: 2606: UADDR = (SetupPkt.bDevADR & 0x7F);
 10049  001E8E  0104               	movlb	4	; () banked
 10050  001E90  5142               	movf	66,w,b	;volatile
 10051  001E92  0B7F               	andlw	127
 10052  001E94  6E6E               	movwf	3950,c	;volatile
 10053                           
 10054                           ; BSR set to: 4
 10055                           ;usb_device.c: 2607: if(UADDR != 0u)
 10056  001E96  506E               	movf	3950,w,c	;volatile
 10057  001E98  B4D8               	btfsc	status,2,c
 10058  001E9A  D002               	goto	i2l369
 10059                           
 10060                           ; BSR set to: 4
 10061                           ;usb_device.c: 2608: {
 10062                           ;usb_device.c: 2609: USBDeviceState=ADDRESS_STATE;
 10063  001E9C  0E10               	movlw	16
 10064  001E9E  D001               	goto	L15
 10065  001EA0                     i2l369:
 10066                           
 10067                           ; BSR set to: 4
 10068                           ;usb_device.c: 2611: else
 10069                           ;usb_device.c: 2612: {
 10070                           ;usb_device.c: 2613: USBDeviceState=DEFAULT_STATE;
 10071                           
 10072                           ; BSR set to: 4
 10073  001EA0  0E04               	movlw	4
 10074  001EA2                     L15:
 10075  001EA2  6E52               	movwf	_USBDeviceState,c	;volatile
 10076  001EA4                     i2l370:
 10077                           
 10078                           ;usb_device.c: 2614: }
 10079                           ;usb_device.c: 2615: }
 10080                           ;usb_device.c: 2618: if(controlTransferState == 1)
 10081                           
 10082                           ; BSR set to: 4
 10083                           
 10084                           ; BSR set to: 4
 10085  001EA4  0450               	decf	_controlTransferState,w,c	;volatile
 10086  001EA6  A4D8               	btfss	status,2,c
 10087  001EA8  D03B               	goto	i2l371
 10088                           
 10089                           ;usb_device.c: 2619: {
 10090                           ;usb_device.c: 2620: pBDTEntryIn[0]->ADR = ((uint16_t)(CtrlTrfData));
 10091  001EAA  0100               	movlb	0	; () banked
 10092  001EAC  EE20 F002          	lfsr	2,2
 10093  001EB0  5172               	movf	_pBDTEntryIn& (0+255),w,b
 10094  001EB2  26D9               	addwf	fsr2l,f,c
 10095  001EB4  5173               	movf	(_pBDTEntryIn+1)& (0+255),w,b
 10096  001EB6  22DA               	addwfc	fsr2h,f,c
 10097  001EB8  0E48               	movlw	72
 10098  001EBA  6EDE               	movwf	postinc2,c
 10099  001EBC  0E04               	movlw	4
 10100  001EBE  6EDD               	movwf	postdec2,c
 10101                           
 10102                           ; BSR set to: 0
 10103                           ;usb_device.c: 2621: USBCtrlTrfTxService();
 10104  001EC0  EC6D  F00E         	call	_USBCtrlTrfTxService	;wreg free
 10105                           
 10106                           ;usb_device.c: 2627: if(shortPacketStatus == 2)
 10107  001EC4  0E02               	movlw	2
 10108  001EC6  1851               	xorwf	_shortPacketStatus,w,c	;volatile
 10109  001EC8  A4D8               	btfss	status,2,c
 10110  001ECA  D00D               	goto	i2l372
 10111                           
 10112                           ;usb_device.c: 2628: {
 10113                           ;usb_device.c: 2631: pBDTEntryIn[0]->STAT.Val = 0x04;
 10114  001ECC  C072  FFD9         	movff	_pBDTEntryIn,fsr2l
 10115  001ED0  C073  FFDA         	movff	_pBDTEntryIn+1,fsr2h
 10116  001ED4  0E04               	movlw	4
 10117  001ED6  6EDF               	movwf	indf2,c
 10118                           
 10119                           ;usb_device.c: 2632: pBDTEntryIn[0]->STAT.Val |= 0x80;
 10120  001ED8  C072  FFD9         	movff	_pBDTEntryIn,fsr2l
 10121  001EDC  C073  FFDA         	movff	_pBDTEntryIn+1,fsr2h
 10122  001EE0  0E00               	movlw	0
 10123  001EE2  8EDB               	bsf	plusw2,7,c
 10124                           
 10125                           ;usb_device.c: 2633: }
 10126  001EE4  0012               	return	
 10127  001EE6                     i2l372:
 10128                           
 10129                           ;usb_device.c: 2634: else
 10130                           ;usb_device.c: 2635: {
 10131                           ;usb_device.c: 2636: if(lastDTS == 0)
 10132  001EE6  5002               	movf	USBCtrlTrfInHandler@lastDTS,w,c
 10133  001EE8  A4D8               	btfss	status,2,c
 10134  001EEA  D00D               	goto	i2l374
 10135                           
 10136                           ;usb_device.c: 2637: {
 10137                           ;usb_device.c: 2638: pBDTEntryIn[0]->STAT.Val = 0x40|(0x08 & 0x08);
 10138  001EEC  C072  FFD9         	movff	_pBDTEntryIn,fsr2l
 10139  001EF0  C073  FFDA         	movff	_pBDTEntryIn+1,fsr2h
 10140  001EF4  0E48               	movlw	72
 10141  001EF6  6EDF               	movwf	indf2,c
 10142                           
 10143                           ;usb_device.c: 2639: pBDTEntryIn[0]->STAT.Val |= 0x80;
 10144  001EF8  C072  FFD9         	movff	_pBDTEntryIn,fsr2l
 10145  001EFC  C073  FFDA         	movff	_pBDTEntryIn+1,fsr2h
 10146  001F00  0E00               	movlw	0
 10147  001F02  8EDB               	bsf	plusw2,7,c
 10148                           
 10149                           ;usb_device.c: 2640: }
 10150  001F04  0012               	return	
 10151  001F06                     i2l374:
 10152                           
 10153                           ;usb_device.c: 2641: else
 10154                           ;usb_device.c: 2642: {
 10155                           ;usb_device.c: 2643: pBDTEntryIn[0]->STAT.Val = 0x00|(0x08 & 0x08);
 10156  001F06  C072  FFD9         	movff	_pBDTEntryIn,fsr2l
 10157  001F0A  C073  FFDA         	movff	_pBDTEntryIn+1,fsr2h
 10158  001F0E  0E08               	movlw	8
 10159  001F10  6EDF               	movwf	indf2,c
 10160                           
 10161                           ;usb_device.c: 2644: pBDTEntryIn[0]->STAT.Val |= 0x80;
 10162  001F12  C072  FFD9         	movff	_pBDTEntryIn,fsr2l
 10163  001F16  C073  FFDA         	movff	_pBDTEntryIn+1,fsr2h
 10164  001F1A  0E00               	movlw	0
 10165  001F1C  8EDB               	bsf	plusw2,7,c
 10166                           
 10167                           ;usb_device.c: 2645: }
 10168                           ;usb_device.c: 2646: }
 10169                           ;usb_device.c: 2647: }
 10170  001F1E  0012               	return	
 10171  001F20                     i2l371:
 10172                           
 10173                           ;usb_device.c: 2648: else
 10174                           ;usb_device.c: 2649: {
 10175                           ;usb_device.c: 2653: if(outPipes[0].info.bits.busy == 1)
 10176  001F20  0100               	movlb	0	; () banked
 10177  001F22  BF6D               	btfsc	(_outPipes+3)& (0+255),7,b	;volatile
 10178                           
 10179                           ; BSR set to: 0
 10180                           ;usb_device.c: 2658: }
 10181                           ;usb_device.c: 2659: outPipes[0].info.bits.busy = 0;
 10182                           
 10183                           ; BSR set to: 0
 10184                           ;usb_device.c: 2656: {
 10185                           ;usb_device.c: 2657: outPipes[0].pFunc();
 10186  001F24  9F6D               	bcf	(_outPipes+3)& (0+255),7,b	;volatile
 10187                           
 10188                           ; BSR set to: 0
 10189                           ;usb_device.c: 2660: }
 10190                           ;usb_device.c: 2662: controlTransferState = 0;
 10191                           
 10192                           ; BSR set to: 0
 10193  001F26  0E00               	movlw	0
 10194  001F28  6E50               	movwf	_controlTransferState,c	;volatile
 10195  001F2A  0012               	return	
 10196  001F2C                     __end_of_USBCtrlTrfInHandler:
 10197                           	opt stack 0
 10198                           pclatu	equ	0xFFB
 10199                           pclath	equ	0xFFA
 10200                           tblptru	equ	0xFF8
 10201                           tblptrh	equ	0xFF7
 10202                           tblptrl	equ	0xFF6
 10203                           tablat	equ	0xFF5
 10204                           prodh	equ	0xFF4
 10205                           prodl	equ	0xFF3
 10206                           intcon	equ	0xFF2
 10207                           postinc0	equ	0xFEE
 10208                           fsr0h	equ	0xFEA
 10209                           fsr0l	equ	0xFE9
 10210                           wreg	equ	0xFE8
 10211                           indf1	equ	0xFE7
 10212                           fsr1h	equ	0xFE2
 10213                           fsr1l	equ	0xFE1
 10214                           indf2	equ	0xFDF
 10215                           postinc2	equ	0xFDE
 10216                           postdec2	equ	0xFDD
 10217                           plusw2	equ	0xFDB
 10218                           fsr2h	equ	0xFDA
 10219                           fsr2l	equ	0xFD9
 10220                           status	equ	0xFD8
 10221                           
 10222 ;; *************** function _USBCtrlTrfTxService *****************
 10223 ;; Defined at:
 10224 ;;		line 1771 in file "usb/src/usb_device.c"
 10225 ;; Parameters:    Size  Location     Type
 10226 ;;		None
 10227 ;; Auto vars:     Size  Location     Type
 10228 ;;  byteToSend      1    0[COMRAM] unsigned char 
 10229 ;; Return value:  Size  Location     Type
 10230 ;;                  1    wreg      void 
 10231 ;; Registers used:
 10232 ;;		wreg, fsr1l, fsr1h, fsr2l, fsr2h, status,2, status,0, tblptrl, tblptrh, tblptru
 10233 ;; Tracked objects:
 10234 ;;		On entry : 0/0
 10235 ;;		On exit  : 0/0
 10236 ;;		Unchanged: 0/0
 10237 ;; Data sizes:     COMRAM   BANK0   BANK1   BANK2   BANK3   BANK4   BANK5   BANK6   BANK7
 10238 ;;      Params:         0       0       0       0       0       0       0       0       0
 10239 ;;      Locals:         1       0       0       0       0       0       0       0       0
 10240 ;;      Temps:          0       0       0       0       0       0       0       0       0
 10241 ;;      Totals:         1       0       0       0       0       0       0       0       0
 10242 ;;Total ram usage:        1 bytes
 10243 ;; Hardware stack levels used:    1
 10244 ;; This function calls:
 10245 ;;		Nothing
 10246 ;; This function is called by:
 10247 ;;		_USBCtrlEPAllowDataStage
 10248 ;;		_USBCtrlTrfInHandler
 10249 ;; This function uses a non-reentrant model
 10250 ;;
 10251                           
 10252                           	psect	text49
 10253  001CDA                     __ptext49:
 10254                           	opt stack 0
 10255  001CDA                     _USBCtrlTrfTxService:
 10256                           	opt stack 20
 10257                           
 10258                           ;usb_device.c: 1773: uint8_t byteToSend;
 10259                           ;usb_device.c: 1777: byteToSend = 8;
 10260                           
 10261                           ;incstack = 0
 10262  001CDA  0E08               	movlw	8
 10263  001CDC  6E01               	movwf	USBCtrlTrfTxService@byteToSend,c
 10264                           
 10265                           ;usb_device.c: 1778: if(inPipes[0].wCount.Val < (uint8_t)8)
 10266  001CDE  0100               	movlb	0	; () banked
 10267  001CE0  5187               	movf	(_inPipes+5)& (0+255),w,b	;volatile
 10268  001CE2  E110               	bnz	i2l3311
 10269  001CE4  0E08               	movlw	8
 10270  001CE6  5D86               	subwf	(_inPipes+4)& (0+255),w,b	;volatile
 10271  001CE8  B0D8               	btfsc	status,0,c
 10272  001CEA  D00C               	goto	i2l276
 10273                           
 10274                           ; BSR set to: 0
 10275                           ;usb_device.c: 1779: {
 10276                           ;usb_device.c: 1780: byteToSend = inPipes[0].wCount.Val;
 10277  001CEC  C086  F001         	movff	_inPipes+4,USBCtrlTrfTxService@byteToSend	;volatile
 10278                           
 10279                           ; BSR set to: 0
 10280                           ;usb_device.c: 1787: if(shortPacketStatus == 0)
 10281  001CF0  5051               	movf	_shortPacketStatus,w,c	;volatile
 10282  001CF2  A4D8               	btfss	status,2,c
 10283  001CF4  D002               	goto	i2l274
 10284                           
 10285                           ; BSR set to: 0
 10286                           ;usb_device.c: 1788: {
 10287                           ;usb_device.c: 1789: shortPacketStatus = 1;
 10288  001CF6  0E01               	movlw	1
 10289  001CF8  D004               	goto	L16
 10290  001CFA                     i2l274:
 10291                           
 10292                           ; BSR set to: 0
 10293                           ;usb_device.c: 1791: else if(shortPacketStatus == 1)
 10294                           
 10295                           ; BSR set to: 0
 10296  001CFA  0451               	decf	_shortPacketStatus,w,c	;volatile
 10297  001CFC  A4D8               	btfss	status,2,c
 10298  001CFE  D002               	goto	i2l276
 10299                           
 10300                           ; BSR set to: 0
 10301                           ;usb_device.c: 1792: {
 10302                           ;usb_device.c: 1793: shortPacketStatus = 2;
 10303  001D00  0E02               	movlw	2
 10304  001D02                     L16:
 10305  001D02  6E51               	movwf	_shortPacketStatus,c	;volatile
 10306  001D04                     i2l276:
 10307  001D04                     i2l3311:
 10308                           
 10309                           ; BSR set to: 0
 10310                           ;usb_device.c: 1794: }
 10311                           ;usb_device.c: 1795: }
 10312                           ;usb_device.c: 1799: inPipes[0].wCount.Val -= byteToSend;
 10313  001D04  5001               	movf	USBCtrlTrfTxService@byteToSend,w,c
 10314  001D06  5F86               	subwf	(_inPipes+4)& (0+255),f,b	;volatile
 10315  001D08  0E00               	movlw	0
 10316  001D0A  5B87               	subwfb	(_inPipes+5)& (0+255),f,b	;volatile
 10317                           
 10318                           ; BSR set to: 0
 10319                           ;usb_device.c: 1804: pBDTEntryIn[0]->CNT = byteToSend;
 10320  001D0C  EE20 F001          	lfsr	2,1
 10321  001D10  5172               	movf	_pBDTEntryIn& (0+255),w,b
 10322  001D12  26D9               	addwf	fsr2l,f,c
 10323  001D14  5173               	movf	(_pBDTEntryIn+1)& (0+255),w,b
 10324  001D16  22DA               	addwfc	fsr2h,f,c
 10325  001D18  C001  FFDF         	movff	USBCtrlTrfTxService@byteToSend,indf2
 10326                           
 10327                           ; BSR set to: 0
 10328                           ;usb_device.c: 1808: pDst = (volatile uint8_t*)CtrlTrfData;
 10329  001D1C  0E48               	movlw	72
 10330  001D1E  6E3D               	movwf	_pDst,c
 10331  001D20  0E04               	movlw	4
 10332  001D22  6E3E               	movwf	_pDst+1,c
 10333                           
 10334                           ; BSR set to: 0
 10335                           ;usb_device.c: 1809: if(inPipes[0].info.bits.ctrl_trf_mem == 0x00)
 10336  001D24  A185               	btfss	(_inPipes+3)& (0+255),0,b	;volatile
 10337  001D26  D01C               	goto	i2l278
 10338  001D28  D03A               	goto	i2l282
 10339  001D2A                     
 10340                           ; BSR set to: 0
 10341                           ;usb_device.c: 1812: {
 10342                           ;usb_device.c: 1813: *pDst++ = *inPipes[0].pSrc.bRom++;
 10343                           
 10344                           ; BSR set to: 0
 10345  001D2A  C082  FFF6         	movff	_inPipes,tblptrl	;volatile
 10346  001D2E  C083  FFF7         	movff	_inPipes+1,tblptrh	;volatile
 10347  001D32  6AF8               	clrf	tblptru,c
 10348  001D34  C03D  FFD9         	movff	_pDst,fsr2l
 10349  001D38  C03E  FFDA         	movff	_pDst+1,fsr2h
 10350  001D3C  0E07               	movlw	(high __ramtop+-1)
 10351  001D3E  64F7               	cpfsgt	tblptrh,c
 10352  001D40  D003               	bra	i2u224_47
 10353  001D42  0008               	tblrd		*
 10354  001D44  50F5               	movf	tablat,w,c
 10355  001D46  D005               	bra	i2u224_40
 10356  001D48                     i2u224_47:
 10357  001D48  CFF6 FFE1          	movff	tblptrl,fsr1l
 10358  001D4C  CFF7 FFE2          	movff	tblptrh,fsr1h
 10359  001D50  50E7               	movf	indf1,w,c
 10360  001D52                     i2u224_40:
 10361  001D52  6EDF               	movwf	indf2,c
 10362  001D54  0100               	movlb	0	; () banked
 10363  001D56  4B82               	infsnz	_inPipes& (0+255),f,b	;volatile
 10364  001D58  2B83               	incf	(_inPipes+1)& (0+255),f,b	;volatile
 10365                           
 10366                           ; BSR set to: 0
 10367  001D5A  4A3D               	infsnz	_pDst,f,c
 10368  001D5C  2A3E               	incf	_pDst+1,f,c
 10369                           
 10370                           ; BSR set to: 0
 10371                           ;usb_device.c: 1814: byteToSend--;
 10372  001D5E  0601               	decf	USBCtrlTrfTxService@byteToSend,f,c
 10373  001D60                     i2l278:
 10374                           
 10375                           ; BSR set to: 0
 10376                           
 10377                           ; BSR set to: 0
 10378  001D60  5001               	movf	USBCtrlTrfTxService@byteToSend,w,c
 10379  001D62  B4D8               	btfsc	status,2,c
 10380  001D64  0012               	return	
 10381  001D66  D7E1               	goto	i2l279
 10382  001D68                     
 10383                           ; BSR set to: 0
 10384                           ;usb_device.c: 1820: {
 10385                           ;usb_device.c: 1821: *pDst++ = *inPipes[0].pSrc.bRam++;
 10386                           
 10387                           ; BSR set to: 0
 10388  001D68  C082  FFF6         	movff	_inPipes,tblptrl	;volatile
 10389  001D6C  C083  FFF7         	movff	_inPipes+1,tblptrh	;volatile
 10390  001D70  6AF8               	clrf	tblptru,c
 10391  001D72  C03D  FFD9         	movff	_pDst,fsr2l
 10392  001D76  C03E  FFDA         	movff	_pDst+1,fsr2h
 10393  001D7A  0E07               	movlw	(high __ramtop+-1)
 10394  001D7C  64F7               	cpfsgt	tblptrh,c
 10395  001D7E  D003               	bra	i2u226_47
 10396  001D80  0008               	tblrd		*
 10397  001D82  50F5               	movf	tablat,w,c
 10398  001D84  D005               	bra	i2u226_40
 10399  001D86                     i2u226_47:
 10400  001D86  CFF6 FFE1          	movff	tblptrl,fsr1l
 10401  001D8A  CFF7 FFE2          	movff	tblptrh,fsr1h
 10402  001D8E  50E7               	movf	indf1,w,c
 10403  001D90                     i2u226_40:
 10404  001D90  6EDF               	movwf	indf2,c
 10405  001D92  0100               	movlb	0	; () banked
 10406  001D94  4B82               	infsnz	_inPipes& (0+255),f,b	;volatile
 10407  001D96  2B83               	incf	(_inPipes+1)& (0+255),f,b	;volatile
 10408                           
 10409                           ; BSR set to: 0
 10410  001D98  4A3D               	infsnz	_pDst,f,c
 10411  001D9A  2A3E               	incf	_pDst+1,f,c
 10412                           
 10413                           ; BSR set to: 0
 10414                           ;usb_device.c: 1822: byteToSend--;
 10415  001D9C  0601               	decf	USBCtrlTrfTxService@byteToSend,f,c
 10416  001D9E                     i2l282:
 10417                           
 10418                           ; BSR set to: 0
 10419                           
 10420                           ; BSR set to: 0
 10421  001D9E  5001               	movf	USBCtrlTrfTxService@byteToSend,w,c
 10422  001DA0  B4D8               	btfsc	status,2,c
 10423  001DA2  0012               	return	
 10424  001DA4  D7E1               	goto	i2l283
 10425  001DA6                     __end_of_USBCtrlTrfTxService:
 10426                           	opt stack 0
 10427                           pclatu	equ	0xFFB
 10428                           pclath	equ	0xFFA
 10429                           tblptru	equ	0xFF8
 10430                           tblptrh	equ	0xFF7
 10431                           tblptrl	equ	0xFF6
 10432                           tablat	equ	0xFF5
 10433                           prodh	equ	0xFF4
 10434                           prodl	equ	0xFF3
 10435                           intcon	equ	0xFF2
 10436                           postinc0	equ	0xFEE
 10437                           fsr0h	equ	0xFEA
 10438                           fsr0l	equ	0xFE9
 10439                           wreg	equ	0xFE8
 10440                           indf1	equ	0xFE7
 10441                           fsr1h	equ	0xFE2
 10442                           fsr1l	equ	0xFE1
 10443                           indf2	equ	0xFDF
 10444                           postinc2	equ	0xFDE
 10445                           postdec2	equ	0xFDD
 10446                           plusw2	equ	0xFDB
 10447                           fsr2h	equ	0xFDA
 10448                           fsr2l	equ	0xFD9
 10449                           status	equ	0xFD8
 10450                           pclatu	equ	0xFFB
 10451                           pclath	equ	0xFFA
 10452                           tblptru	equ	0xFF8
 10453                           tblptrh	equ	0xFF7
 10454                           tblptrl	equ	0xFF6
 10455                           tablat	equ	0xFF5
 10456                           prodh	equ	0xFF4
 10457                           prodl	equ	0xFF3
 10458                           intcon	equ	0xFF2
 10459                           postinc0	equ	0xFEE
 10460                           fsr0h	equ	0xFEA
 10461                           fsr0l	equ	0xFE9
 10462                           wreg	equ	0xFE8
 10463                           indf1	equ	0xFE7
 10464                           fsr1h	equ	0xFE2
 10465                           fsr1l	equ	0xFE1
 10466                           indf2	equ	0xFDF
 10467                           postinc2	equ	0xFDE
 10468                           postdec2	equ	0xFDD
 10469                           plusw2	equ	0xFDB
 10470                           fsr2h	equ	0xFDA
 10471                           fsr2l	equ	0xFD9
 10472                           status	equ	0xFD8
 10473                           
 10474                           	psect	rparam
 10475  0000                     pclatu	equ	0xFFB
 10476                           pclath	equ	0xFFA
 10477                           tblptru	equ	0xFF8
 10478                           tblptrh	equ	0xFF7
 10479                           tblptrl	equ	0xFF6
 10480                           tablat	equ	0xFF5
 10481                           prodh	equ	0xFF4
 10482                           prodl	equ	0xFF3
 10483                           intcon	equ	0xFF2
 10484                           postinc0	equ	0xFEE
 10485                           fsr0h	equ	0xFEA
 10486                           fsr0l	equ	0xFE9
 10487                           wreg	equ	0xFE8
 10488                           indf1	equ	0xFE7
 10489                           fsr1h	equ	0xFE2
 10490                           fsr1l	equ	0xFE1
 10491                           indf2	equ	0xFDF
 10492                           postinc2	equ	0xFDE
 10493                           postdec2	equ	0xFDD
 10494                           plusw2	equ	0xFDB
 10495                           fsr2h	equ	0xFDA
 10496                           fsr2l	equ	0xFD9
 10497                           status	equ	0xFD8
 10498                           
 10499                           	psect	temp
 10500  00005C                     btemp:
 10501                           	opt stack 0
 10502  00005C                     	ds	1
 10503  0000                     int$flags	set	btemp
 10504  0000                     wtemp6	set	btemp+1
 10505                           pclatu	equ	0xFFB
 10506                           pclath	equ	0xFFA
 10507                           tblptru	equ	0xFF8
 10508                           tblptrh	equ	0xFF7
 10509                           tblptrl	equ	0xFF6
 10510                           tablat	equ	0xFF5
 10511                           prodh	equ	0xFF4
 10512                           prodl	equ	0xFF3
 10513                           intcon	equ	0xFF2
 10514                           postinc0	equ	0xFEE
 10515                           fsr0h	equ	0xFEA
 10516                           fsr0l	equ	0xFE9
 10517                           wreg	equ	0xFE8
 10518                           indf1	equ	0xFE7
 10519                           fsr1h	equ	0xFE2
 10520                           fsr1l	equ	0xFE1
 10521                           indf2	equ	0xFDF
 10522                           postinc2	equ	0xFDE
 10523                           postdec2	equ	0xFDD
 10524                           plusw2	equ	0xFDB
 10525                           fsr2h	equ	0xFDA
 10526                           fsr2l	equ	0xFD9
 10527                           status	equ	0xFD8


Data Sizes:
    Strings     0
    Constant    211
    Data        0
    BSS         130
    Persistent  0
    Stack       0

Auto Spaces:
    Space          Size  Autos    Used
    COMRAM           94     46      91
    BANK0           160     33     118
    BANK1           256      0       0
    BANK2           256      0       0
    BANK3           256      0       0
    BANK4           176      0       0
    BANK5           128      0       0
    BANK6           256      0       0
    BANK7           256      0       0

Pointer List with Targets:

    USER_USB_CALLBACK_EVENT_HANDLER@pdata	PTR void  size(2) Largest target is 2047
		 -> RAM(DATA[2047]), USTATcopy(COMRAM[1]), USBActiveConfiguration(COMRAM[1]), NULL(NULL[0]), 
		 -> BDT(BIGRAMl[64]), 

    memset@p1	PTR void  size(2) Largest target is 64
		 -> USBAlternateInterface(BANK0[4]), BDT(BIGRAMl[64]), UEP1(SFR[1]), 

    memset@p	PTR unsigned char  size(2) Largest target is 64
		 -> USBAlternateInterface(BANK0[4]), BDT(BIGRAMl[64]), UEP1(SFR[1]), 

    memcpy@d1	PTR void  size(2) Largest target is 8
		 -> SetupPkt(BIGRAMhl[8]), 

    memcpy@d	PTR unsigned char  size(2) Largest target is 8
		 -> SetupPkt(BIGRAMhl[8]), 

    memcpy@s1	PTR const void  size(2) Largest target is 2047
		 -> CtrlTrfData(BIGRAMhl[8]), RAM(DATA[2047]), SetupPkt(BIGRAMhl[8]), 

    memcpy@s	PTR const unsigned char  size(2) Largest target is 2047
		 -> CtrlTrfData(BIGRAMhl[8]), RAM(DATA[2047]), SetupPkt(BIGRAMhl[8]), 

    USBuartReadByte@receivedByte	PTR unsigned char  size(2) Largest target is 1
		 -> ActualizarMasterMEF@datousb(BANK0[1]), 

    uartReadByte@receivedByte	PTR unsigned char  size(2) Largest target is 1
		 -> ActualizarMasterMEF@data(BANK0[1]), ActualizarMasterMEF@aux(BANK0[1]), 

    putUSBUSART@data	PTR unsigned char  size(2) Largest target is 1
		 -> USBuartWriteByte@dato(BANK0[1]), 

    getsUSBUSART@buffer	PTR unsigned char  size(2) Largest target is 1
		 -> ActualizarMasterMEF@datousb(BANK0[1]), 

    CDCDataInHandle	PTR void  size(2) Largest target is 2047
		 -> RAM(DATA[2047]), NULL(NULL[0]), BDT(BIGRAMl[64]), 

    CDCDataOutHandle	PTR void  size(2) Largest target is 2047
		 -> RAM(DATA[2047]), NULL(NULL[0]), BDT(BIGRAMl[64]), 

    pCDCDst.wRom	PTR const unsigned int  size(2) Largest target is 0

    pCDCDst.bRom	PTR const unsigned char  size(2) Largest target is 0

    pCDCDst.wRam	PTR unsigned int  size(2) Largest target is 0

    pCDCDst.bRam	PTR unsigned char  size(2) Largest target is 0

    S1949_POINTER$wRom	PTR const unsigned int  size(2) Largest target is 0

    pCDCSrc.wRom	PTR const unsigned int  size(2) Largest target is 0

    S1949_POINTER$bRom	PTR const unsigned char  size(2) Largest target is 0

    pCDCSrc.bRom	PTR const unsigned char  size(2) Largest target is 0

    S1949_POINTER$wRam	PTR unsigned int  size(2) Largest target is 0

    pCDCSrc.wRam	PTR unsigned int  size(2) Largest target is 0

    S1949_POINTER$bRam	PTR unsigned char  size(2) Largest target is 0

    pCDCSrc.bRam	PTR unsigned char  size(2) Largest target is 0

    USBStdFeatureReqHandler@pUEP	PTR unsigned char  size(2) Largest target is 1
		 -> UEP0(SFR[1]), 

    USBStdFeatureReqHandler@p	PTR struct __BDT size(2) Largest target is 2047
		 -> RAM(DATA[2047]), NULL(NULL[0]), BDT(BIGRAMl[64]), 

    sp__memcpy	PTR void  size(2) Largest target is 8
		 -> SetupPkt(BIGRAMhl[8]), 

    USBStdGetStatusHandler@p	PTR struct __BDT size(2) Largest target is 2047
		 -> RAM(DATA[2047]), NULL(NULL[0]), BDT(BIGRAMl[64]), 

    pDst	PTR volatile unsigned char  size(2) Largest target is 8
		 -> CtrlTrfData(BIGRAMhl[8]), NULL(NULL[0]), 

    USBConfigureEndpoint@handle	PTR volatile struct __BDT size(2) Largest target is 64
		 -> BDT(BIGRAMl[64]), 

    pBDTEntryEP0OutCurrent	PTR volatile struct __BDT size(2) Largest target is 64
		 -> NULL(NULL[0]), BDT(BIGRAMl[64]), 

    pBDTEntryEP0OutNext	PTR volatile struct __BDT size(2) Largest target is 2047
		 -> RAM(DATA[2047]), NULL(NULL[0]), BDT(BIGRAMl[64]), 

    USBTransferOnePacket@data	PTR unsigned char  size(2) Largest target is 64
		 -> cdc_data_tx(BIGRAMhl[64]), cdc_data_rx(BIGRAMhh[64]), NULL(NULL[0]), 

    sp__USBTransferOnePacket	PTR void  size(2) Largest target is 2047
		 -> RAM(DATA[2047]), NULL(NULL[0]), BDT(BIGRAMl[64]), 

    USBTransferOnePacket@handle	PTR volatile struct __BDT size(2) Largest target is 2047
		 -> RAM(DATA[2047]), NULL(NULL[0]), BDT(BIGRAMl[64]), 

    USBEnableEndpoint@p	PTR unsigned char  size(2) Largest target is 1
		 -> UEP0(SFR[1]), 

    pBDTEntryOut	PTR volatile struct __BDT[4] size(2) Largest target is 2047
		 -> RAM(DATA[2047]), NULL(NULL[0]), BDT(BIGRAMl[64]), 

    pBDTEntryIn	PTR volatile struct __BDT[4] size(2) Largest target is 2047
		 -> RAM(DATA[2047]), NULL(NULL[0]), BDT(BIGRAMl[64]), 

    S246$pFunc	PTR FTN()void  size(2) Largest target is 1
		 -> Absolute function(), 

    outPipes.pFunc	PTR FTN()void  size(2) Largest target is 1
		 -> Absolute function(), 

    S236$wRam	PTR unsigned int  size(2) Largest target is 0

    outPipes.pDst.wRam	PTR unsigned int  size(2) Largest target is 0

    S236$bRam	PTR unsigned char  size(2) Largest target is 0

    outPipes.pDst.bRam	PTR unsigned char  size(2) Largest target is 0

    S212$wRom	PTR const unsigned int  size(2) Largest target is 0

    inPipes.pSrc.wRom	PTR const unsigned int  size(2) Largest target is 0

    S212$wRam	PTR unsigned int  size(2) Largest target is 0

    inPipes.pSrc.wRam	PTR unsigned int  size(2) Largest target is 0

    S212$bRom	PTR const unsigned char  size(2) Largest target is 0

    inPipes.pSrc.bRom	PTR const unsigned char  size(2) Largest target is 0

    S212$bRam	PTR unsigned char  size(2) Largest target is 0

    inPipes.pSrc.bRam	PTR unsigned char  size(2) Largest target is 0

    sp__memset	PTR void  size(2) Largest target is 64
		 -> USBAlternateInterface(BANK0[4]), BDT(BIGRAMl[64]), UEP1(SFR[1]), 

    USB_SD_Ptr	const PTR const unsigned char [3] size(2) Largest target is 52
		 -> sd002(CODE[52]), sd001(CODE[52]), sd000(CODE[4]), 

    USB_CD_Ptr	const PTR const unsigned char [1] size(2) Largest target is 67
		 -> configDescriptor1(CODE[67]), 


Critical Paths under _main in COMRAM

    None.

Critical Paths under _isr in COMRAM

    _isr->_USBDeviceTasks
    _USBDeviceTasks->_USBCtrlEPService
    i2_USBDeviceInit->i2_memset
    _USBWakeFromSuspend->_USER_USB_CALLBACK_EVENT_HANDLER
    _USBSuspend->_USER_USB_CALLBACK_EVENT_HANDLER
    _USBCtrlEPAllowDataStage->_USBCtrlTrfTxService
    _USBCheckStdRequest->_USBStdFeatureReqHandler
    _USBStdSetCfgHandler->_USER_USB_CALLBACK_EVENT_HANDLER
    _USBStdFeatureReqHandler->_USER_USB_CALLBACK_EVENT_HANDLER
    _CDCInitEP->_USBEnableEndpoint
    _USBEnableEndpoint->_USBConfigureEndpoint
    _USBCtrlTrfOutHandler->_USBCtrlTrfRxService
    _USBCtrlTrfInHandler->_USBCtrlTrfTxService

Critical Paths under _main in BANK0

    _main->_ActualizarMasterMEF
    _USBuartConfig->_USBDeviceInit
    _USBDeviceInit->_memset
    _IniciarMasterMEF->_tickRead
    _ActualizarMasterMEF->_USBuartReadByte
    _USBuartWriteByte->_CDCTxService
    _CDCTxService->_USBTransferOnePacket
    _USBuartReadByte->_getsUSBUSART
    _getsUSBUSART->_USBTransferOnePacket

Critical Paths under _isr in BANK0

    None.

Critical Paths under _main in BANK1

    None.

Critical Paths under _isr in BANK1

    None.

Critical Paths under _main in BANK2

    None.

Critical Paths under _isr in BANK2

    None.

Critical Paths under _main in BANK3

    None.

Critical Paths under _isr in BANK3

    None.

Critical Paths under _main in BANK4

    None.

Critical Paths under _isr in BANK4

    None.

Critical Paths under _main in BANK5

    None.

Critical Paths under _isr in BANK5

    None.

Critical Paths under _main in BANK6

    None.

Critical Paths under _isr in BANK6

    None.

Critical Paths under _main in BANK7

    None.

Critical Paths under _isr in BANK7

    None.

Call Graph Tables:

 ---------------------------------------------------------------------------------
 (Depth) Function   	        Calls       Base Space   Used Autos Params    Refs
 ---------------------------------------------------------------------------------
 (0) _main                                                13    13      0    7923
                                             26 BANK0      7     7      0
                _ActualizarMasterMEF
                   _IniciarMasterMEF
                      _USBuartConfig
                            _initApp
                           _tickRead
 ---------------------------------------------------------------------------------
 (1) _initApp                                              0     0      0       0
                         _uartConfig
 ---------------------------------------------------------------------------------
 (2) _uartConfig                                           0     0      0       0
 ---------------------------------------------------------------------------------
 (1) _USBuartConfig                                        0     0      0    1361
                    _USBDeviceAttach
                      _USBDeviceInit
 ---------------------------------------------------------------------------------
 (2) _USBDeviceInit                                        1     1      0    1361
                                              8 BANK0      1     1      0
                             _memset
 ---------------------------------------------------------------------------------
 (3) _memset                                               8     2      6    1070
                                              0 BANK0      8     2      6
 ---------------------------------------------------------------------------------
 (2) _USBDeviceAttach                                      0     0      0       0
 ---------------------------------------------------------------------------------
 (1) _IniciarMasterMEF                                     0     0      0      34
                           _tickRead
 ---------------------------------------------------------------------------------
 (1) _ActualizarMasterMEF                                  8     8      0    6485
                                             18 BANK0      8     8      0
                             _RxMode
                             _TxMode
                    _USBuartReadByte
                   _USBuartWriteByte
                           _tickRead
                       _uartReadByte
                      _uartWriteByte
 ---------------------------------------------------------------------------------
 (2) _uartWriteByte                                        1     1      0      31
                                              0 BANK0      1     1      0
 ---------------------------------------------------------------------------------
 (2) _uartReadByte                                         2     0      2    1071
                                              0 BANK0      2     0      2
 ---------------------------------------------------------------------------------
 (1) _tickRead                                             4     2      2      34
                                              0 BANK0      4     2      2
 ---------------------------------------------------------------------------------
 (2) _USBuartWriteByte                                     2     2      0    2496
                                             13 BANK0      2     2      0
                       _CDCTxService
                        _putUSBUSART
 ---------------------------------------------------------------------------------
 (3) _putUSBUSART                                          3     0      3     270
                                              0 BANK0      3     0      3
 ---------------------------------------------------------------------------------
 (3) _CDCTxService                                         2     2      0    2189
                                             11 BANK0      2     2      0
               _USBTransferOnePacket
 ---------------------------------------------------------------------------------
 (2) _USBuartReadByte                                      3     1      2    2464
                                             15 BANK0      3     1      2
                       _getsUSBUSART
 ---------------------------------------------------------------------------------
 (3) _getsUSBUSART                                         4     1      3    2292
                                             11 BANK0      4     1      3
               _USBTransferOnePacket
 ---------------------------------------------------------------------------------
 (4) _USBTransferOnePacket                                11     7      4    1988
                                              0 BANK0     11     7      4
 ---------------------------------------------------------------------------------
 (2) _TxMode                                               0     0      0       0
 ---------------------------------------------------------------------------------
 (2) _RxMode                                               0     0      0       0
 ---------------------------------------------------------------------------------
 Estimated maximum stack depth 4
 ---------------------------------------------------------------------------------
 (Depth) Function   	        Calls       Base Space   Used Autos Params    Refs
 ---------------------------------------------------------------------------------
 (5) _isr                                                 18    18      0   29555
                                             28 COMRAM    18    18      0
                     _USBDeviceTasks
 ---------------------------------------------------------------------------------
 (6) _USBDeviceTasks                                       1     1      0   29555
                                             27 COMRAM     1     1      0
          _USBCtrlEPAllowStatusStage
                   _USBCtrlEPService
      _USBIncrement1msInternalTimers
                    _USBStallHandler
                         _USBSuspend
                 _USBWakeFromSuspend
    _USER_USB_CALLBACK_EVENT_HANDLER
                    i2_USBDeviceInit
 ---------------------------------------------------------------------------------
 (7) i2_USBDeviceInit                                      1     1      0     610
                                              8 COMRAM     1     1      0
                           i2_memset
 ---------------------------------------------------------------------------------
 (7) _USBWakeFromSuspend                                   0     0      0    3879
    _USER_USB_CALLBACK_EVENT_HANDLER
 ---------------------------------------------------------------------------------
 (7) _USBSuspend                                           0     0      0    3879
    _USER_USB_CALLBACK_EVENT_HANDLER
 ---------------------------------------------------------------------------------
 (7) _USBStallHandler                                      1     1      0       0
                                              0 COMRAM     1     1      0
 ---------------------------------------------------------------------------------
 (7) _USBIncrement1msInternalTimers                        0     0      0       0
 ---------------------------------------------------------------------------------
 (7) _USBCtrlEPService                                     1     1      0   17262
                                             26 COMRAM     1     1      0
                _USBCtrlTrfInHandler
               _USBCtrlTrfOutHandler
             _USBCtrlTrfSetupHandler
                             _memcpy
 ---------------------------------------------------------------------------------
 (8) _memcpy                                              11     5      6     410
                                              0 COMRAM    11     5      6
 ---------------------------------------------------------------------------------
 (8) _USBCtrlTrfSetupHandler                               0     0      0   16623
                 _USBCheckStdRequest
           _USBCtrlEPServiceComplete
    _USER_USB_CALLBACK_EVENT_HANDLER
 ---------------------------------------------------------------------------------
 (9) _USBCtrlEPServiceComplete                             0     0      0      92
            _USBCtrlEPAllowDataStage
          _USBCtrlEPAllowStatusStage
 ---------------------------------------------------------------------------------
 (10) _USBCtrlEPAllowDataStage                             0     0      0      92
                _USBCtrlTrfTxService
 ---------------------------------------------------------------------------------
 (9) _USBCheckStdRequest                                   0     0      0   12652
            _USBStdFeatureReqHandler
                _USBStdGetDscHandler
             _USBStdGetStatusHandler
                _USBStdSetCfgHandler
    _USER_USB_CALLBACK_EVENT_HANDLER
 ---------------------------------------------------------------------------------
 (10) _USBStdSetCfgHandler                                 1     1      0    4377
                                             20 COMRAM     1     1      0
    _USER_USB_CALLBACK_EVENT_HANDLER
                           i2_memset
 ---------------------------------------------------------------------------------
 (8) i2_memset                                             8     2      6     408
                                              0 COMRAM     8     2      6
 ---------------------------------------------------------------------------------
 (10) _USBStdGetStatusHandler                              3     3      0      46
                                              0 COMRAM     3     3      0
 ---------------------------------------------------------------------------------
 (10) _USBStdGetDscHandler                                 2     2      0       0
                                              0 COMRAM     2     2      0
 ---------------------------------------------------------------------------------
 (10) _USBStdFeatureReqHandler                             6     6      0    4350
                                             20 COMRAM     6     6      0
    _USER_USB_CALLBACK_EVENT_HANDLER
 ---------------------------------------------------------------------------------
 (7) _USER_USB_CALLBACK_EVENT_HANDLER                      8     2      6    3879
                                             12 COMRAM     8     2      6
                          _CDCInitEP
                 _USBCheckCDCRequest
                            _initCDC
 ---------------------------------------------------------------------------------
 (8) _initCDC                                              0     0      0       0
 ---------------------------------------------------------------------------------
 (8) _USBCheckCDCRequest                                   0     0      0       0
 ---------------------------------------------------------------------------------
 (8) _CDCInitEP                                            0     0      0    1187
                  _USBEnableEndpoint
             i2_USBTransferOnePacket
 ---------------------------------------------------------------------------------
 (9) i2_USBTransferOnePacket                              11     7      4     454
                                              0 COMRAM    11     7      4
 ---------------------------------------------------------------------------------
 (9) _USBEnableEndpoint                                    4     3      1     733
                                              8 COMRAM     4     3      1
               _USBConfigureEndpoint
 ---------------------------------------------------------------------------------
 (10) _USBConfigureEndpoint                                8     7      1     400
                                              0 COMRAM     8     7      1
 ---------------------------------------------------------------------------------
 (8) _USBCtrlTrfOutHandler                                 0     0      0     114
                _USBCtrlTrfRxService
 ---------------------------------------------------------------------------------
 (9) _USBCtrlTrfRxService                                  2     2      0     114
                                              0 COMRAM     2     2      0
          _USBCtrlEPAllowStatusStage
 ---------------------------------------------------------------------------------
 (10) _USBCtrlEPAllowStatusStage                           0     0      0       0
 ---------------------------------------------------------------------------------
 (8) _USBCtrlTrfInHandler                                  1     1      0     115
                                              1 COMRAM     1     1      0
                _USBCtrlTrfTxService
 ---------------------------------------------------------------------------------
 (11) _USBCtrlTrfTxService                                 1     1      0      92
                                              0 COMRAM     1     1      0
 ---------------------------------------------------------------------------------
 Estimated maximum stack depth 11
 ---------------------------------------------------------------------------------

 Call Graph Graphs:

 _main (ROOT)
   _ActualizarMasterMEF
     _RxMode
     _TxMode
     _USBuartReadByte
       _getsUSBUSART
         _USBTransferOnePacket
     _USBuartWriteByte
       _CDCTxService
         _USBTransferOnePacket
       _putUSBUSART
     _tickRead
     _uartReadByte
     _uartWriteByte
   _IniciarMasterMEF
     _tickRead
   _USBuartConfig
     _USBDeviceAttach
     _USBDeviceInit
       _memset
   _initApp
     _uartConfig
   _tickRead

 _isr (ROOT)
   _USBDeviceTasks
     _USBCtrlEPAllowStatusStage
     _USBCtrlEPService
       _USBCtrlTrfInHandler
         _USBCtrlTrfTxService
       _USBCtrlTrfOutHandler
         _USBCtrlTrfRxService
           _USBCtrlEPAllowStatusStage
       _USBCtrlTrfSetupHandler
         _USBCheckStdRequest
           _USBStdFeatureReqHandler
             _USER_USB_CALLBACK_EVENT_HANDLER
               _CDCInitEP
                 _USBEnableEndpoint
                   _USBConfigureEndpoint
                 i2_USBTransferOnePacket
               _USBCheckCDCRequest
               _initCDC
           _USBStdGetDscHandler
           _USBStdGetStatusHandler
           _USBStdSetCfgHandler
             _USER_USB_CALLBACK_EVENT_HANDLER
               _CDCInitEP
                 _USBEnableEndpoint
                   _USBConfigureEndpoint
                 i2_USBTransferOnePacket
               _USBCheckCDCRequest
               _initCDC
             i2_memset
           _USER_USB_CALLBACK_EVENT_HANDLER
             _CDCInitEP
               _USBEnableEndpoint
                 _USBConfigureEndpoint
               i2_USBTransferOnePacket
             _USBCheckCDCRequest
             _initCDC
         _USBCtrlEPServiceComplete
           _USBCtrlEPAllowDataStage
             _USBCtrlTrfTxService
           _USBCtrlEPAllowStatusStage
         _USER_USB_CALLBACK_EVENT_HANDLER
           _CDCInitEP
             _USBEnableEndpoint
               _USBConfigureEndpoint
             i2_USBTransferOnePacket
           _USBCheckCDCRequest
           _initCDC
       _memcpy
     _USBIncrement1msInternalTimers
     _USBStallHandler
     _USBSuspend
       _USER_USB_CALLBACK_EVENT_HANDLER
         _CDCInitEP
           _USBEnableEndpoint
             _USBConfigureEndpoint
           i2_USBTransferOnePacket
         _USBCheckCDCRequest
         _initCDC
     _USBWakeFromSuspend
       _USER_USB_CALLBACK_EVENT_HANDLER
         _CDCInitEP
           _USBEnableEndpoint
             _USBConfigureEndpoint
           i2_USBTransferOnePacket
         _USBCheckCDCRequest
         _initCDC
     _USER_USB_CALLBACK_EVENT_HANDLER
       _CDCInitEP
         _USBEnableEndpoint
           _USBConfigureEndpoint
         i2_USBTransferOnePacket
       _USBCheckCDCRequest
       _initCDC
     i2_USBDeviceInit
       i2_memset

 Address spaces:
Name               Size   Autos  Total    Cost      Usage
BIGRAMl            3FF      0       0      23        0.0%
BIGRAMhh           280      0       0      21        0.0%
EEDATA             100      0       0       0        0.0%
BITBANK7           100      0       0      19        0.0%
BANK7              100      0       0      20        0.0%
BITBANK6           100      0       0      17        0.0%
BANK6              100      0       0      18        0.0%
BITBANK3           100      0       0      10        0.0%
BANK3              100      0       0      11        0.0%
BITBANK2           100      0       0       8        0.0%
BANK2              100      0       0       9        0.0%
BITBANK1           100      0       0       6        0.0%
BANK1              100      0       0       7        0.0%
BIGRAMhl            B0      0       0      22        0.0%
BITBANK4            B0      0       0      12        0.0%
BANK4               B0      0       0      13        0.0%
BITBANK0            A0      0       0       4        0.0%
BANK0               A0     21      76       5       73.8%
BITBANK5            80      0       0      14        0.0%
BANK5               80      0       0      15        0.0%
BITCOMRAM           5E      0       0       0        0.0%
COMRAM              5E     2E      5B       1       96.8%
BITSFR               0      0       0     200        0.0%
SFR                  0      0       0     200        0.0%
STACK                0      0       0       2        0.0%
NULL                 0      0       0       0        0.0%
ABS                  0      0      D1      16        0.0%
DATA                 0      0      D1       3        0.0%
CODE                 0      0       0       0        0.0%


Microchip Technology PIC18 Macro Assembler V1.45 build -152302408 
Symbol Table                                                                                   Tue Oct 29 11:03:59 2019

                         ??_uartWriteByte 00B5                                _USB_SD_Ptr 080B  
                             __CFG_BOR$ON 000000                             _USBDeviceInit 1124  
                             __CFG_BORV$3 000000                        __size_of_CDCInitEP 0064  
                            __CFG_CP0$OFF 000000                              __CFG_CP1$OFF 000000  
    USER_USB_CALLBACK_EVENT_HANDLER@event 000D      USER_USB_CALLBACK_EVENT_HANDLER@pdata 000F  
                                     l213 1838                                       l215 1862  
                                     l217 18E0                                       l235 278A  
                                     l236 2788               __end_of_USBStdGetDscHandler 15FC  
                                     l174 116A                                       l504 2260  
                                     l176 1190                                       l514 2832  
                                     l178 11C6                                       l507 220E  
                                     l508 223A                                       l540 1672  
                                     l532 1616                                       l509 2214  
                                     l550 16EA                                       l542 16AC  
                                     l534 1624                                       l551 16EE  
                                     l543 168E                                       l535 162E  
                                     l536 165C                                       l800 0990  
                                     l538 170C                                       l546 16D2  
                                     l570 2604                                       l547 16B4  
                                     l539 166E                                       l803 0D58  
                                     l811 0A24                                       l820 0B16  
                                     l812 0A56                                       l804 0998  
                                     l741 2664                                       l733 254C  
                                     l805 09D6                                       l743 2688  
                                     l823 0B46                                       l815 0A86  
                                     l807 09F4                                       l736 2568  
                                     l840 0CBC                                       l824 0B78  
                                     l816 0AB4                                       l808 09E4  
                                     l841 0CB2                                       l833 0C14  
                                     l682 28A8                                       l834 0C50  
                                     l739 265C                                       l851 0D92  
                                     l835 0C46                                       l827 0BA8  
                                     l819 0AE4                                       l852 0DFA  
                                     l828 0BE4                                       _BDT 000400  
                                     l853 0DB6                                       l845 0CEC  
                                     l829 0BDA                                       l846 0D28  
                                     l791 0E80                                       l855 0DC8  
                                     l847 0D1E                                       l839 0C80  
                                     l864 0E3C                                       l792 08D8  
                                     l857 0DDA                                       l793 0934  
                                     l859 0DEC                                       l796 0948  
                                     l798 0954                                       _GIE 007F97  
                            __CFG_CPB$OFF 000000                                       _PSA 007EAB  
                                     _UIE 000F69                                       _UIR 000F68  
                                     _isr 0008                                _USBSuspend 2794  
                    USBStdSetCfgHandler@i 0015                                       prod 000FF3  
                                     wreg 000FE8                            _USBDeviceTasks 13A0  
                          _USBDeviceState 0052                     ??_USBCtrlTrfRxService 0001  
                __size_ofi2_USBDeviceInit 013E                            ??_getsUSBUSART 00C3  
                USBEnableEndpoint@options 0009                              __CFG_LVP$OFF 000000  
                            __CFG_WDT$OFF 000000                                      l1300 273E  
                                    l1299 2750                USBConfigureEndpoint@handle 0007  
                                    l5049 28DA                                      l4835 273E  
                                    ?_isr 0001                                      l4959 1162  
                                    l4987 11BE                                      _BRGH 007D62  
                                    _CREN 007D5C                                      _T0CS 007EAD  
                                    u4310 16D8                                      u4180 21EA  
                                    u4350 1186                                      u4520 0914  
                                    u4380 1222                                      u4538 0918  
                                    _RCIF 007CF5                                      i2l23 2496  
                                    i2l31 2490                                      u4907 2574  
                                    i2l29 2486                     ??_USBCtrlTrfTxService 0001  
                                    _UCFG 000F6F                                      _UEP0 000F70  
                                    _UEP1 000F71                                      _UEIE 000F6B  
                                    _UEIR 000F6A                                      _UCON 000F6D  
                                    _TMR0 000FD6                                      _SPEN 007D5F  
                                    _TXEN 007D65                                      _TXIF 007CF4  
                                    _SYNC 007D64                           _CDCDataInHandle 003B  
  USBStdFeatureReqHandler@current_ep_data 0018                                      _pDst 003D  
                                    _main 25C8                  ??i2_USBTransferOnePacket 0005  
                                    _next 0043                                      fsr0h 000FEA  
                                    fsr1h 000FE2                                      fsr2h 000FDA  
                                    fsr0l 000FE9                                      indf1 000FE7  
                             _BaudRateGen 0088                                      indf2 000FDF  
                                    fsr1l 000FE1                                      fsr2l 000FD9  
                         _USBDeviceAttach 2764                                      btemp 005C  
                             main@tinicio 00D3                                      prodh 000FF4  
                                    prodl 000FF3                                      start 000E  
               ActualizarMasterMEF@target 00A0                             __CFG_IESO$OFF 000000  
              __end_of_USBCheckStdRequest 1BFA                    ??_USBCtrlTrfOutHandler 0003  
                           __CFG_MCLRE$ON 000000                              ___param_bank 000000  
               ??_USBStdFeatureReqHandler 0015                  ??_USBStdGetStatusHandler 0001  
                                   ??_isr 001D                            ?_USBDeviceInit 0001  
                           __CFG_PLLDIV$5 000000                                     ?_main 0001  
       __size_of_USBCtrlEPServiceComplete 00F2                    __end_of_USBDeviceTasks 14CE  
                                   _T0PS0 007EA8                                     _T0PS1 007EA9  
                                   _T0PS2 007EAA                 ?_USBCtrlEPServiceComplete 0001  
                                   _PCFG0 007E08                                     _PCFG1 007E09  
                                   _PCFG2 007E0A                                     _PCFG3 007E0B  
                                   i2l201 148A                                     i2l203 14AA  
                                   i2l213 193A                                     i2l301 1C44  
                                   i2l205 14C6                                     i2l310 14E0  
                                   i2l215 1964                                     i2l303 1CB8  
                                   i2l208 269C                                     i2l312 14F4  
                                   i2l209 26AA                                     i2l217 19E2  
                                   i2l401 0EC8                                     i2l313 157C  
                                   i2l410 1020                                     i2l402 0ECC  
                                   i2l322 2106                                     i2l243 1DEE  
                                   i2l315 1584                                     i2l323 2096  
                                   i2l251 219C                                     i2l420 10AC  
                                   i2l412 0FEA                                     i2l404 0F36  
                                   i2l316 15D4                                     i2l260 1A9E  
                                   i2l413 1006                                     i2l309 15E4  
                                   i2l261 1A48                                     i2l422 10FE  
                                   i2l406 0F7E                                     i2l318 15DC  
                                   i2l326 211C                                     i2l350 22EC  
                                   i2l174 12A4                                     i2l255 235E  
                                   i2l415 106C                                     i2l327 20A6  
                                   i2l351 22E6                                     i2l191 1408  
                                   i2l416 1078                                     i2l408 0FA0  
                                   i2l328 20AC                                     i2l336 2648  
                                   i2l344 2728                                     i2l176 12CA  
                                   i2l184 13B4                                     i2l361 24F2  
                                   i2l417 10F2                                     i2l329 20CA  
                                   i2l249 2180                                     i2l265 1AC4  
                                   i2l337 2646                                     i2l345 2726  
                                   i2l193 141C                                     i2l185 13C0  
                                   i2l282 1D9E                                     i2l274 1CFA  
                                   i2l370 1EA4                                     i2l290 173E  
                                   i2l178 1302                                     i2l194 1426  
                                   i2l186 13C8                                     i2l283 1D68  
                                   i2l371 1F20                                     i2l363 253A  
                                   i2l195 144A                                     i2l276 1D04  
                                   i2l372 1EE6                                     i2l292 17D4  
                                   i2l196 1454                                     i2l188 13DA  
                                   i2l293 17BA                                     i2l189 13E4  
                                   i2l278 1D60                                     i2l374 1F06  
                                   i2l390 1B52                                     i2l198 1464  
                                   i2l279 1D2A                                     i2l391 1B58  
                                   i2l384 1BB6                                     i2l369 1EA0  
                                   i2l289 1760                                     i2l393 1B5E  
                                   i2l385 1B28                                     i2l482 1FB8  
                                   i2l394 1B7C                                     i2l483 1F52  
                                   i2l395 1B98                                     i2l387 1B32  
                                   i2l388 1B38                                     i2l485 1F6A  
                                   i2l389 1B3E                                     i2l486 1F78  
                                   i2l590 203E                                     i2l487 1F96  
                                   i2l488 1FAE                                     i2l589 203A  
                                   _UADDR 000F6E                                     _RCREG 000FAE  
                                   _SPBRG 000FAF                             __CFG_USBDIV$2 000000  
                                   _USTAT 000F6C                                     _TXREG 000FAD  
                           __CFG_PWRT$OFF 000000                       _ActualizarMasterMEF 08D6  
                           __CFG_WRT0$OFF 000000        __size_of_USBCtrlEPAllowStatusStage 00C4  
                           __CFG_WRT1$OFF 000000                            __CFG_EBTR0$OFF 000000  
                          __CFG_FCMEN$OFF 000000                            __CFG_EBTR1$OFF 000000  
         __end_of_USBCtrlEPAllowDataStage 21D0                                     _sd000 08D0  
                                   _sd001 088A                                     _sd002 0856  
                           __CFG_WRTB$OFF 000000            ?_USBIncrement1msInternalTimers 0001  
                           __CFG_WRTC$OFF 000000                           __end_of_initCDC 2894  
                          __CFG_EBTRB$OFF 000000                                i2memset@p1 0001  
                         __end_of_initApp 26FE                          _IniciarMasterMEF 2836  
              ActualizarMasterMEF@datousb 00B2                                     _tloop 0096  
                                   main@x 00D5                                     pclath 000FFA  
                                   tablat 000FF5                                     plusw2 000FDB  
                       __end_of_CDCInitEP 2484                                     status 000FD8  
                                   wtemp6 005D                          __end_ofi2_memset 27EE  
                    ?_ActualizarMasterMEF 0001                 __size_of_USBuartWriteByte 0044  
                         putUSBUSART@data 00B5              __size_of_USBStdSetCfgHandler 00E0  
                    USBuartWriteByte@dato 00C3                           __initialization 27EE  
                            __end_of_main 260A                     _control_signal_bitmap 0044  
               __size_of_USBCtrlEPService 0096                                    ??_main 00CF  
                           __activetblptr 000002                           ?_USBDeviceTasks 0001  
                             ?_USBSuspend 0001                              _cdc_mem_type 0045  
                 __end_of_USBDeviceAttach 2794                          _CDCDataOutHandle 009C  
                         getsUSBUSART@len 00C2                     __size_of_CDCTxService 0114  
                                  i2l1300 27CC                                    i2l1293 25B6  
                                  i2l1294 2596                                    i2l3311 1D04  
                                  i2l1299 27DC                                    i2l4203 129C  
                                  i2l3413 1C3C                                    i2l3343 27CC  
                                  i2l4231 12FA                                    i2l4337 145C  
                                  i2l3759 2596                                    i2l5457 24AE  
                                  i2l5459 24DE                             CDCTxService@i 00C0  
                                  _TMR0IE 007F95                                    _TMR0IF 007F92  
                                  _TMR1CS 007E69                                    _TRISC6 007CA6  
                                  _TRISC7 007CA7                  i2USBTransferOnePacket@ep 0009  
                       ??i2_USBDeviceInit 0009           __size_ofi2_USBTransferOnePacket 0102  
                   ??_ActualizarMasterMEF 00C7                            __CFG_VREGEN$ON 000000  
                       _shortPacketStatus 0051                            __CFG_XINST$OFF 000000  
                                  _RxMode 28F4                                    _TxMode 28EE  
                         USBDeviceTasks@i 001C               USBStdFeatureReqHandler@pUEP 0016  
                USBTransferOnePacket@data 00B6                USBCtrlTrfInHandler@lastDTS 0002  
                uartReadByte@receivedByte 00B5                           ??_USBDeviceInit 00BD  
                            ?_putUSBUSART 00B5                            __CFG_STVREN$ON 000000  
                    __end_of_getsUSBUSART 2266                         _USBEnableEndpoint 268C  
         __size_of_USBStdGetStatusHandler 00A8                                    _memcpy 2584  
                                  _memset 2734                                    clear_0 27F4  
                                  clear_1 2800                        ?_USBEnableEndpoint 0009  
                               ??_initCDC 0001             __size_of_USBTransferOnePacket 0106  
                        __end_of_tickRead 28C2                                 ??_initApp 00B5  
                            _CDCTxService 15FC                              __mediumconst 0000  
                                  tblptrh 000FF7                                    tblptrl 000FF6  
                                  tblptru 000FF8                       ??_USBEnableEndpoint 000A  
                __size_of_USBuartReadByte 0040                               _CtrlTrfData 000448  
                    _controlTransferState 0050                                __accesstop 0060  
                 __end_of__initialization 2806                           __CFG_PBADEN$OFF 000000  
                           ___rparam_used 000001                  __size_of_USBStallHandler 0042  
                     __size_of_USBSuspend 002E                            __pcstackCOMRAM 0001  
               __end_of_USBEnableEndpoint 26C8                             __end_of_sd000 08D4  
                           __end_of_sd001 08BE                             __end_of_sd002 088A  
        __size_of_USBCtrlEPAllowDataStage 009E             __size_of_USBConfigureEndpoint 0094  
             __end_of_USBCtrlTrfInHandler 1F2C                    i2_USBTransferOnePacket 1924  
                              _cdc_notice 0060                                 ?i2_memset 0001  
                              _cdc_rx_len 00A3                                _cdc_tx_len 0046  
                ??_USBCtrlTrfSetupHandler 001B                   _USBTicksSinceSuspendEnd 00A4  
                  __size_of_USBuartConfig 000A                          ?_USBDeviceAttach 0001  
                  _USBStdGetStatusHandler 208A                                __pbssBANK0 0060  
             __size_of_USBWakeFromSuspend 0036                               _pBDTEntryIn 0072  
        __end_of_USBCtrlEPServiceComplete 1B18                          _USBuartWriteByte 2540  
             __size_of_USBCheckCDCRequest 00B0                                   ?_RxMode 0001  
                                 ?_TxMode 0001                      USBCtrlTrfRxService@i 0001  
                __end_of_IniciarMasterMEF 2856                     __end_of_uartWriteByte 28E4  
                                 ?_memcpy 0001                                   ?_memset 00B5  
                              _device_dsc 08BE                          _USBCtrlEPService 2266  
                              _ep_data_in 0090                                   _T1CKPS0 007E6C  
                                 _T1CKPS1 007E6D               __end_of_USBCtrlTrfRxService 181E  
                      _USBCheckStdRequest 1B18                         _configDescriptor1 0813  
                              ??i2_memset 0007               __end_of_USBCtrlTrfTxService 1DA6  
                     _USBStdSetCfgHandler 1BFA                       ?_USBCheckStdRequest 0001  
            __size_of_USBStdGetDscHandler 012E                                   _UIEbits 000F69  
                             tickRead@aux 00B7                                   _UIRbits 000F68  
                           _cdc_trf_state 00A2                         ??_USBuartReadByte 00C6  
                                 _pCDCDst 0033                                   _pCDCSrc 0036  
                   __size_of_getsUSBUSART 0096                                   __Hparam 0000  
                               ?_tickRead 00B5           ??_USBIncrement1msInternalTimers 0001  
                    ?_USBStdSetCfgHandler 0001                                 _CDCInitEP 2420  
                                 __Lparam 0000                           __size_of_RxMode 0006  
              __size_of_USBEnableEndpoint 003C                           __size_of_TxMode 0006  
                           ?_uartReadByte 00B5                             _USBuartConfig 28E4  
                    ??_USBCheckStdRequest 001B             __size_of_USBCtrlTrfOutHandler 005C  
                        ??_USBDeviceTasks 001C                         ??_USBStallHandler 0001  
                            __psmallconst 0800                      __size_of_putUSBUSART 0022  
                                 __pcinit 27EE                        getsUSBUSART@buffer 00C0  
                         __size_of_memcpy 0044                           __size_of_memset 0030  
               __end_of_configDescriptor1 0856                                   __ramtop 0800  
                                 __ptext0 25C8                                   __ptext1 26C8  
                                 __ptext2 28C2                                   __ptext3 28E4  
                                 __ptext4 1124                                   __ptext5 2734  
                                 __ptext6 2764                                   __ptext7 2836  
                                 __ptext8 08D6                                   __ptext9 28D6  
                                 _inPipes 0082               _USBDeferOUTDataStagePackets 0047  
                                 _initCDC 2876                                   _initApp 26C8  
                            ??_USBSuspend 0015                              __size_of_isr 2082  
                         i2_USBDeviceInit 1262                          i2USBDeviceInit@i 0009  
                                 _tinicio 009A                                   _timeout 0098  
                      __end_of_USB_CD_Ptr 0813           __size_of_USBCtrlTrfSetupHandler 0090  
                          __pintcode_body 1FDC                      end_of_initialization 2806  
                            _getsUSBUSART 21D0                        __end_of_USB_SD_Ptr 0811  
                                 memcpy@d 0007                                   memcpy@n 0005  
                                 memcpy@s 0009                       _pBDTEntryEP0OutNext 003F  
                                 memset@c 00B7                                   memset@n 00B9  
                                 memset@p 00BB                             __Lmediumconst 0000  
                                 int_func 1FDC                           _USB1msTickCount 002F  
         _dummy_encapsulated_cmd_response 00A6                  ?_USBStdFeatureReqHandler 0001  
                   ??_USBStdSetCfgHandler 0015                                ??_tickRead 00B7  
                              ?_CDCInitEP 0001                                _uartConfig 28C2  
                          ??_uartReadByte 00B7                        __end_of_USBSuspend 27C2  
                          ?_USBuartConfig 0001                   _USBCtrlEPAllowDataStage 2132  
                                 postdec2 000FDD                                   postinc0 000FEE  
                                 postinc2 000FDE                  _USBCtrlEPServiceComplete 1A26  
              _USBStatusStageEnabledFlag1 004A                _USBStatusStageEnabledFlag2 0049  
                      USBEnableEndpoint@p 000A                                 _PORTAbits 000F80  
                               _PORTCbits 000F82                                 _TRISAbits 000F92  
                               _TRISBbits 000F93                                 _TRISCbits 000F94  
                      _BothEP0OutUOWNsSet 004D                 USBConfigureEndpoint@EPNum 0006  
              ?_USBCtrlEPAllowStatusStage 0001               __end_of_ActualizarMasterMEF 0EA4  
     USER_USB_CALLBACK_EVENT_HANDLER@size 0011                                 _USTATcopy 005A  
            __end_of_USBTransferOnePacket 1924                         putUSBUSART@length 00B7  
                  _USBCtrlTrfSetupHandler 2390                            __end_of_RxMode 28FA  
                          __end_of_TxMode 28F4                   ?i2_USBTransferOnePacket 0001  
                   __end_of_USBDeviceInit 1262     __end_of_USBIncrement1msInternalTimers 2876  
  __size_of_USBIncrement1msInternalTimers 0020             _USBIncrement1msInternalTimers 2856  
                 __end_ofi2_USBDeviceInit 13A0                                 i2memset@c 0003  
                               i2memset@n 0005                                 i2memset@p 0007  
                          __end_of_memcpy 25C8                            __end_of_memset 2764  
                       _USBBusIsSuspended 00A5                       start_initialization 27EE  
                 ?_USBStdGetStatusHandler 0001                  __end_of_USBuartWriteByte 2584  
           USBCtrlTrfRxService@byteToRead 0002                               __end_of_isr 208A  
                             _cdc_data_rx 000540                               _cdc_data_tx 000500  
                       __size_ofi2_memset 002C              __end_of_USBConfigureEndpoint 2390  
         __end_of_USBStdFeatureReqHandler 1124         __end_of_USBCtrlEPAllowStatusStage 1E6A  
                __end_of_USBCtrlEPService 22FC                 ??_USBCtrlEPAllowDataStage 0002  
                         ??_USBuartConfig 00BE                               ??_CDCInitEP 000D  
                          USBDeviceInit@i 00BD                               ?_uartConfig 0001  
                                ??_RxMode 00B5                    _pBDTEntryEP0OutCurrent 0041  
                                ??_TxMode 00B5                   USBTransferOnePacket@dir 00B5  
                 USBTransferOnePacket@len 00B8            __end_ofi2_USBTransferOnePacket 1A26  
                     _USBStdGetDscHandler 14CE                         ?_IniciarMasterMEF 0001  
                            _estadoActual 00A1                          __CFG_LPT1OSC$OFF 000000  
                                ??_memcpy 0007                                  ??_memset 00BB  
                 ActualizarMasterMEF@data 00B4                        ??_IniciarMasterMEF 00B9  
                 ActualizarMasterMEF@temp 009E                    _USBActiveConfiguration 005B  
          __end_of_USBStdGetStatusHandler 2132                               __pbssCOMRAM 002F  
                         _USBuartReadByte 264C                             __pcstackBANK0 00B5  
            __size_of_USBCtrlTrfInHandler 00C2                      __end_of_uartReadByte 28AC  
                    ?_USBStdGetDscHandler 0001                         displayWrite@F3387 0801  
              __end_of_USBWakeFromSuspend 2734                           _USBStallHandler 260A  
                            _pBDTEntryOut 007A                __end_of_USBCheckCDCRequest 1FDC  
                __size_of_USBDeviceAttach 0030                                 __pintcode 0008  
                       __size_of_tickRead 0016                          ?i2_USBDeviceInit 0001  
                                ?_initCDC 0001                      _USBTransferOnePacket 181E  
                             __smallconst 0800                                  ?_initApp 0001  
            __end_of_USBCtrlTrfOutHandler 2540                     ??_USBStdGetDscHandler 0001  
                     __size_of_uartConfig 0014                 __end_ofdisplayWrite@F3387 080B  
                             _ep_data_out 008C              __size_of_USBCtrlTrfRxService 010E  
           USBConfigureEndpoint@direction 0001                    __size_of_uartWriteByte 000E  
            __size_of_USBCtrlTrfTxService 00CC                ??_USBCtrlEPServiceComplete 0002  
                                _IPR2bits 000FA2                                  _PIE2bits 000FA0  
                                i2u224_40 1D52                                  i2u240_40 1546  
                                i2u224_47 1D48                                  i2u240_47 153C  
                                i2u241_40 1576                                  i2u241_47 156C  
                                i2u226_40 1D90                                  i2u226_47 1D86  
                                i2u243_40 15C8                                  i2u243_47 15BE  
                                i2u236_40 1C70                                  i2u336_40 12C0  
                                i2u265_40 1092                                  i2u339_40 135E  
                                i2u363_40 14CA                                  _PIR2bits 000FA1  
                                _RCONbits 000FD0                             ??_putUSBUSART 00B8  
                        __CFG_WDTPS$32768 000000                                  _UEP0bits 000F70  
              _USBDeferINDataStagePackets 0048               __size_of_USBCheckStdRequest 00E2  
                                _UCONbits 000F6D                      _USBConfigureEndpoint 22FC  
                 __end_of_USBuartReadByte 268C          __size_of_USBStdFeatureReqHandler 0280  
                   ?_USBTransferOnePacket 00B5                             ?_CDCTxService 0001  
                            _RemoteWakeup 004F                                  i2_memset 27C2  
             USBuartReadByte@receivedByte 00C4                   __end_of_USBStallHandler 264C  
             ??_USBCtrlEPAllowStatusStage 0001               __end_of_USBStdSetCfgHandler 1CDA  
                      __end_of_device_dsc 08D0                        uartWriteByte@value 00B5  
                 ?_USBCtrlTrfSetupHandler 0001                   USBStdGetStatusHandler@p 0002  
                                __Hrparam 0000                                 memcpy@tmp 000B  
                                __Lrparam 0000                    USBTransferOnePacket@ep 00BD  
                                _SetupPkt 000440                    ActualizarMasterMEF@aux 00B3  
                  ActualizarMasterMEF@pkg 00C9                    ActualizarMasterMEF@lux 0094  
                   ?_USBConfigureEndpoint 0001                         ??_USBDeviceAttach 00B5  
                           _uartWriteByte 28D6                       __end_of_putUSBUSART 2836  
                             _line_coding 0053                            ??_CDCTxService 00C0  
                   __size_of_uartReadByte 0018                          __size_of_initCDC 001E  
                        __size_of_initApp 0036                   __size_of_USBDeviceTasks 012E  
                       ?_USBuartWriteByte 0001                                  __ptext10 2894  
                                __ptext11 28AC                                  __ptext12 2540  
                                __ptext21 13A0                                  __ptext13 2814  
                                __ptext30 1A26                                  __ptext22 1262  
                                __ptext14 15FC                                  __ptext31 2132  
                                __ptext23 26FE                                  __ptext15 264C  
                                __ptext40 1F2C                                  __ptext32 1B18  
                                __ptext24 2794                                  __ptext16 21D0  
                                __ptext41 2420                                  __ptext33 1BFA  
                                __ptext25 260A                                  __ptext17 181E  
                                __ptext42 1924                                  __ptext34 27C2  
                                __ptext26 2856                                  __ptext18 28EE  
                                __ptext43 268C                                  __ptext35 208A  
                                __ptext27 2266                                  __ptext19 28F4  
                                __ptext44 22FC                                  __ptext36 14CE  
                                __ptext28 2584                                  __ptext45 24E4  
                                __ptext37 0EA4                                  __ptext29 2390  
                                __ptext46 1710                                  __ptext38 2484  
                                __ptext47 1DA6                                  __ptext39 2876  
                                __ptext48 1E6A                                  __ptext49 1CDA  
                      ??_USBuartWriteByte 00C2            __end_of_USBCtrlTrfSetupHandler 2420  
                           __size_of_main 0042                         ?_USBCtrlEPService 0001  
                      ??_USBCtrlEPService 001B              __size_of_ActualizarMasterMEF 05CE  
                                _tickRead 28AC                              ??_uartConfig 00B5  
                     _USBCtrlTrfInHandler 1E6A                                  _outPipes 006A  
                    _USBCtrlTrfOutHandler 24E4                              _uartReadByte 2894  
                                int$flags 005C               USBuartReadByte@numBytesRead 00C6  
               _USBCtrlEPAllowStatusStage 1DA6                            ?_uartWriteByte 0001  
                                main@tick 00CF                    ??_USBTransferOnePacket 00B9  
                        ?_USBuartReadByte 00C4                     __CFG_CPUDIV$OSC4_PLL6 000000  
               _USBDeferStatusStagePacket 004B                  CDCTxService@byte_to_send 00C1  
                              _INTCONbits 000FF2                      ?_USBCtrlTrfInHandler 0001  
                                memcpy@d1 0001                                  memcpy@s1 0003  
           USBCtrlTrfTxService@byteToSend 0001                               _tickCounter 0039  
                                memset@p1 00B5                 __size_of_IniciarMasterMEF 0020  
                        ?_USBStallHandler 0001                  USBStdFeatureReqHandler@p 0019  
                      __end_of_uartConfig 28D6                                  intlevel2 0000  
                  __size_of_USBDeviceInit 013E   __end_of_USER_USB_CALLBACK_EVENT_HANDLER 24E4  
__size_of_USER_USB_CALLBACK_EVENT_HANDLER 0060         ??_USER_USB_CALLBACK_EVENT_HANDLER 0013  
        ?_USER_USB_CALLBACK_EVENT_HANDLER 000D           _USER_USB_CALLBACK_EVENT_HANDLER 2484  
            i2USBTransferOnePacket@handle 000A                i2USBTransferOnePacket@data 0002  
                   __end_of_USBuartConfig 28EE                    ??_USBConfigureEndpoint 0002  
                   ?_USBCtrlTrfOutHandler 0001                               _putUSBUSART 2814  
                     _USBCtrlTrfRxService 1710                        _USBWakeFromSuspend 26FE  
                 _USBStdFeatureReqHandler 0EA4                        _USBCheckCDCRequest 1F2C  
                     _USBCtrlTrfTxService 1CDA                      ActualizarMasterMEF@i 009F  
                     ?_USBWakeFromSuspend 0001                     ??_USBCtrlTrfInHandler 0002  
                   _USBAlternateInterface 00AE                       ?_USBCheckCDCRequest 0001  
               i2USBTransferOnePacket@dir 0001                 i2USBTransferOnePacket@len 0004  
                     USBEnableEndpoint@ep 000C                           _endpoint_number 004E  
                    ?_USBCtrlTrfRxService 0001                             ?_getsUSBUSART 00C0  
                      __CFG_FOSC$HSPLL_HS 000000                  ?_USBCtrlEPAllowDataStage 0001  
                    ?_USBCtrlTrfTxService 0001              _USBStatusStageTimeoutCounter 004C  
                    ??_USBWakeFromSuspend 0015                USBTransferOnePacket@handle 00BE  
                    __end_of_CDCTxService 1710                      ??_USBCheckCDCRequest 0001  
                              _USB_CD_Ptr 0811  
